; ModuleID = 'add_discard_usecase'
source_filename = "<string>"
target datalayout = "e-m:e-i8:8:32-i16:16:32-i64:64-i128:128-n32:64-S128"
target triple = "aarch64-unknown-linux-gnu"

@_ZN08NumbaEnv5numba5tests9test_sets19add_discard_usecaseB2v1B38c8tJTIcFHzwl2ILiXkcBV0KBSgP9CGZpAgA_3dE8UniTupleI5TupleIxibELi1EE5TupleIxibE5TupleIxibE = common local_unnamed_addr global i8* null
@.const.picklebuf.547599870080 = internal constant { i8*, i32, i8* } { i8* getelementptr inbounds ([66 x i8], [66 x i8]* @.const.pickledata.547599870080, i32 0, i32 0), i32 66, i8* getelementptr inbounds ([20 x i8], [20 x i8]* @.const.pickledata.547599870080.sha1, i32 0, i32 0) }
@.const.picklebuf.547600117248 = internal constant { i8*, i32, i8* } { i8* getelementptr inbounds ([62 x i8], [62 x i8]* @.const.pickledata.547600117248, i32 0, i32 0), i32 62, i8* getelementptr inbounds ([20 x i8], [20 x i8]* @.const.pickledata.547600117248.sha1, i32 0, i32 0) }
@.const.picklebuf.547594481152 = internal constant { i8*, i32, i8* } { i8* getelementptr inbounds ([64 x i8], [64 x i8]* @.const.pickledata.547594481152, i32 0, i32 0), i32 64, i8* getelementptr inbounds ([20 x i8], [20 x i8]* @.const.pickledata.547594481152.sha1, i32 0, i32 0) }
@.const.pickledata.547594481152 = internal constant [64 x i8] c"\80\04\955\00\00\00\00\00\00\00\8C\08builtins\94\8C\0BMemoryError\94\93\94\8C\11cannot shrink set\94\85\94N\87\94."
@.const.pickledata.547594481152.sha1 = internal constant [20 x i8] c"\09\1D%=\03\B1\06p\9Cr2\A5?\BB\CASkp\DBH"
@.const.pickledata.547600117248 = internal constant [62 x i8] c"\80\04\953\00\00\00\00\00\00\00\8C\08builtins\94\8C\0BMemoryError\94\93\94\8C\0Fcannot grow set\94\85\94N\87\94."
@.const.pickledata.547600117248.sha1 = internal constant [20 x i8] c"\A5da\B7\1D\8F)s\E1\0E\C0\BDe\A0\DC\B9\A2\C4\B8\F3"
@.const.pickledata.547599870080 = internal constant [66 x i8] c"\80\04\957\00\00\00\00\00\00\00\8C\08builtins\94\8C\0BMemoryError\94\93\94\8C\13cannot allocate set\94\85\94N\87\94."
@.const.pickledata.547599870080.sha1 = internal constant [20 x i8] c"\C8v\C5\CE\C0R\8F\09\E3\E2\14\95Y\08UY\87\7Fw\\"
@.const.add_discard_usecase = internal constant [20 x i8] c"add_discard_usecase\00"
@PyExc_RuntimeError = external global i8
@".const.missing Environment: _ZN08NumbaEnv5numba5tests9test_sets19add_discard_usecaseB2v1B38c8tJTIcFHzwl2ILiXkcBV0KBSgP9CGZpAgA_3dE8UniTupleI5TupleIxibELi1EE5TupleIxibE5TupleIxibE" = internal constant [172 x i8] c"missing Environment: _ZN08NumbaEnv5numba5tests9test_sets19add_discard_usecaseB2v1B38c8tJTIcFHzwl2ILiXkcBV0KBSgP9CGZpAgA_3dE8UniTupleI5TupleIxibELi1EE5TupleIxibE5TupleIxibE\00"
@PyExc_ValueError = external global i8
@".const.size mismatch for tuple, expected 1 element(s) but got %zd" = internal constant [59 x i8] c"size mismatch for tuple, expected 1 element(s) but got %zd\00"
@".const.size mismatch for tuple, expected 3 element(s) but got %zd" = internal constant [59 x i8] c"size mismatch for tuple, expected 3 element(s) but got %zd\00"
@_Py_NoneStruct = external global i8
@PyExc_StopIteration = external global i8
@PyExc_SystemError = external global i8
@".const.unknown error when calling native function" = internal constant [43 x i8] c"unknown error when calling native function\00"
@".const.<numba.core.cpu.CPUContext object at 0x7f7f943a90>" = internal constant [51 x i8] c"<numba.core.cpu.CPUContext object at 0x7f7f943a90>\00"
@".const.unknown error when calling native function.1" = internal constant [43 x i8] c"unknown error when calling native function\00"
@_ZN08NumbaEnv5numba7cpython7hashing13hash_overload12_3clocals_3e4implB2v2B42c8tJTIcFHzwl2ILiXkcBV0KBSmNGHkyiCKJEEwA_3dE5TupleIxibE = common local_unnamed_addr global i8* null
@_ZN08NumbaEnv5numba7cpython7hashing10tuple_hash12_3clocals_3e4implB2v3B42c8tJTIcFHzwl2ILiXkcBV0KBSmNGHkyiCKJEEwA_3dE5TupleIxibE = common local_unnamed_addr global i8* null
@_ZN08NumbaEnv5numba7cpython7hashing11_tuple_hashB2v4B42c8tJTIcFHzwl2ILiXkcBV0KBSmNGHkyiCKJEEwA_3dE5TupleIxibE = common local_unnamed_addr global i8* null
@_ZN08NumbaEnv5numba4misc7literal19literal_unroll_impl12_3clocals_3e4implB2v5B42c8tJTIcFHzwl2ILiXkcBV0KBSmNGHkyiCKJEEwA_3dE5TupleIxibE = common local_unnamed_addr global i8* null
@_ZN08NumbaEnv5numba7cpython7listobj6in_seq12_3clocals_3e17seq_contains_implB3v20B44c8tJTC_2fWQA9wW1DkAz0Pj1skAdT4gkkUlYBZmgA_3dE8UniTupleIxLi1EEx = common local_unnamed_addr global i8* null
@_ZN08NumbaEnv5numba7cpython7hashing13hash_overload12_3clocals_3e4implB3v12B42c8tJTIcFHzwl2ILiXkcBV0KBSmNGHkyiCKJEEwA_3dEx = common local_unnamed_addr global i8* null
@_ZN08NumbaEnv5numba7cpython7hashing8int_hash12_3clocals_3e4implB3v13B42c8tJTIcFHzwl2ILiXkcBV0KBSmNGHkyiCKJEEwA_3dEx = common local_unnamed_addr global i8* null
@_ZN08NumbaEnv5numba7cpython7hashing14process_returnB2v7B42c8tJTIcFHzwl2ILiXkcBV0KBSmNGHkyiCKJEEwA_3dEx = common local_unnamed_addr global i8* null
@_ZN08NumbaEnv5numba7cpython7hashing10_long_implB3v14B42c8tJTIcFHzwl2ILiXkcBV0KBSmNGHkyiCKJEEwA_3dEx = common local_unnamed_addr global i8* null
@_ZN08NumbaEnv5numba7cpython7hashing16_PyHASH_XXROTATEB2v6B42c8tJTIcFHzwl2ILiXkcBV0KBSmNGHkyiCKJEEwA_3dEy = common local_unnamed_addr global i8* null
@_ZN08NumbaEnv5numba7cpython7hashing13hash_overload12_3clocals_3e4implB3v15B42c8tJTIcFHzwl2ILiXkcBV0KBSmNGHkyiCKJEEwA_3dEi = common local_unnamed_addr global i8* null
@_ZN08NumbaEnv5numba7cpython7hashing8int_hash12_3clocals_3e4implB3v16B42c8tJTIcFHzwl2ILiXkcBV0KBSmNGHkyiCKJEEwA_3dEi = common local_unnamed_addr global i8* null
@_ZN08NumbaEnv5numba7cpython7hashing13hash_overload12_3clocals_3e4implB3v17B42c8tJTIcFHzwl2ILiXkcBV0KBSmNGHkyiCKJEEwA_3dEb = common local_unnamed_addr global i8* null
@_ZN08NumbaEnv5numba7cpython7hashing8int_hash12_3clocals_3e4implB3v18B42c8tJTIcFHzwl2ILiXkcBV0KBSmNGHkyiCKJEEwA_3dEb = common local_unnamed_addr global i8* null
@_ZN08NumbaEnv5numba7cpython7hashing10_long_implB3v19B42c8tJTIcFHzwl2ILiXkcBV0KBSmNGHkyiCKJEEwA_3dEy = common local_unnamed_addr global i8* null
@_ZN08NumbaEnv5numba7cpython7hashing14process_returnB2v8B42c8tJTIcFHzwl2ILiXkcBV0KBSmNGHkyiCKJEEwA_3dEy = common local_unnamed_addr global i8* null
@_ZN08NumbaEnv5numba7cpython7listobj16list_constructor12_3clocals_3e9list_implB3v21B44c8tJTC_2fWQA9wW1DkAz0Pj1skAdT4gkkUlYBZmgA_3dE46set_28Tuple_28int64_2c_20int32_2c_20bool_29_29 = common local_unnamed_addr global i8* null
@_ZN08NumbaEnv5numba7cpython7listobj11list_extend12_3clocals_3e11list_extendB3v22B44c8tJTC_2fWQA9wW1DkAz0Pj1skAdT4gkkUlYBZmgA_3dE62list_28Tuple_28int64_2c_20int32_2c_20bool_29_29_3civ_3dNone_3e46set_28Tuple_28int64_2c_20int32_2c_20bool_29_29 = common local_unnamed_addr global i8* null
@.const.picklebuf.547595775296 = internal constant { i8*, i32, i8* } { i8* getelementptr inbounds ([67 x i8], [67 x i8]* @.const.pickledata.547595775296, i32 0, i32 0), i32 67, i8* getelementptr inbounds ([20 x i8], [20 x i8]* @.const.pickledata.547595775296.sha1, i32 0, i32 0) }
@.const.picklebuf.547595561536 = internal constant { i8*, i32, i8* } { i8* getelementptr inbounds ([65 x i8], [65 x i8]* @.const.pickledata.547595561536, i32 0, i32 0), i32 65, i8* getelementptr inbounds ([20 x i8], [20 x i8]* @.const.pickledata.547595561536.sha1, i32 0, i32 0) }
@.const.pickledata.547595561536 = internal constant [65 x i8] c"\80\04\956\00\00\00\00\00\00\00\8C\08builtins\94\8C\0BMemoryError\94\93\94\8C\12cannot resize list\94\85\94N\87\94."
@.const.pickledata.547595561536.sha1 = internal constant [20 x i8] c"Y!\BA\A11\08M\FF\170\15\C3\9F\DA\DD^8\B9\F4\1E"
@.const.pickledata.547595775296 = internal constant [67 x i8] c"\80\04\958\00\00\00\00\00\00\00\8C\08builtins\94\8C\0BMemoryError\94\93\94\8C\14cannot allocate list\94\85\94N\87\94."
@.const.pickledata.547595775296.sha1 = internal constant [20 x i8] c"+\98\F4\13f\88\DD\D3\C0)\127\06\86\F1\A0\011(\0C"

define i32 @_ZN5numba5tests9test_sets19add_discard_usecaseB2v1B38c8tJTIcFHzwl2ILiXkcBV0KBSgP9CGZpAgA_3dE8UniTupleI5TupleIxibELi1EE5TupleIxibE5TupleIxibE({ i8*, i8* }* noalias nocapture %retptr, { i8*, i32, i8* }** noalias nocapture %excinfo, i64 %arg.a.0.0, i32 %arg.a.0.1, i8 %arg.a.0.2, i64 %arg.u.0, i32 %arg.u.1, i8 %arg.u.2, i64 %arg.v.0, i32 %arg.v.1, i8 %arg.v.2) local_unnamed_addr {
entry:
  %.16.i.i31 = alloca i64, align 8
  %excinfo.1.i.i32 = alloca { i8*, i32, i8* }*, align 8
  %.16.i.i13 = alloca i64, align 8
  %excinfo.1.i.i14 = alloca { i8*, i32, i8* }*, align 8
  %.97.i = alloca i8*, align 8
  %excinfo.1.i = alloca { i8*, i32, i8* }*, align 8
  %.16.i.i = alloca i64, align 8
  %excinfo.1.i.i = alloca { i8*, i32, i8* }*, align 8
  %.15 = icmp ne i8 %arg.a.0.2, 0
  %.25 = icmp ne i8 %arg.u.2, 0
  %.34 = icmp ne i8 %arg.v.2, 0
  %.78 = tail call i8* @NRT_MemInfo_new_varsize_dtor(i64 424, i8* bitcast (void (i8*, i64, i8*)* @".dtor.set.Tuple(int64, int32, bool)" to i8*))
  %.79 = icmp eq i8* %.78, null
  br i1 %.79, label %calcsize.end.endif.endif.if, label %calcsize.end.endif.endif.endif, !prof !2

_ZN5numba7cpython7hashing13hash_overload12_3clocals_3e4implB2v2B42c8tJTIcFHzwl2ILiXkcBV0KBSmNGHkyiCKJEEwA_3dE5TupleIxibE.exit: ; preds = %B18.if
  %.221.i.i = load i64, i64* %21, align 8, !noalias !3
  call void @llvm.lifetime.end.p0i8(i64 8, i8* nonnull %19) #6, !noalias !10
  call void @llvm.lifetime.end.p0i8(i64 8, i8* nonnull %20) #6, !noalias !10
  br label %for_iter.body.endif.endif.endif.if.if

B44:                                              ; preds = %lookup.end.4.endif
  %0 = bitcast i8** %.97.i to i8*
  call void @llvm.lifetime.start.p0i8(i64 8, i8* nonnull %0)
  %1 = bitcast { i8*, i32, i8* }** %excinfo.1.i to i8*
  call void @llvm.lifetime.start.p0i8(i64 8, i8* nonnull %1)
  store i8* null, i8** %.97.i, align 8, !noalias !11
  store { i8*, i32, i8* }* null, { i8*, i32, i8* }** %excinfo.1.i, align 8, !noalias !11
  %.26.i = tail call i8* @NRT_MemInfo_new_varsize_dtor(i64 24, i8* bitcast (void (i8*)* @".dtor.list.Tuple(int64, int32, bool)" to i8*)), !noalias !11
  %.27.i = icmp eq i8* %.26.i, null
  br i1 %.27.i, label %_ZN5numba7cpython7listobj16list_constructor12_3clocals_3e9list_implB3v21B44c8tJTC_2fWQA9wW1DkAz0Pj1skAdT4gkkUlYBZmgA_3dE46set_28Tuple_28int64_2c_20int32_2c_20bool_29_29.exit.thread, label %B0.endif.endif.endif.i, !prof !2

_ZN5numba7cpython7listobj16list_constructor12_3clocals_3e9list_implB3v21B44c8tJTC_2fWQA9wW1DkAz0Pj1skAdT4gkkUlYBZmgA_3dE46set_28Tuple_28int64_2c_20int32_2c_20bool_29_29.exit.thread: ; preds = %B44
  call void @llvm.lifetime.end.p0i8(i64 8, i8* nonnull %0)
  call void @llvm.lifetime.end.p0i8(i64 8, i8* nonnull %1)
  br label %for_iter.body.endif.endif.endif.if.if

B0.endif.endif.endif.i:                           ; preds = %B44
  %.5.i.i = getelementptr i8, i8* %.26.i, i64 24
  %2 = bitcast i8* %.5.i.i to { i64, i64, i8, { i64, i32, i8 } }**
  %.6.i13.i = load { i64, i64, i8, { i64, i32, i8 } }*, { i64, i64, i8, { i64, i32, i8 } }** %2, align 8, !noalias !11
  %.39.i = getelementptr inbounds { i64, i64, i8, { i64, i32, i8 } }, { i64, i64, i8, { i64, i32, i8 } }* %.6.i13.i, i64 0, i32 1
  store i64 0, i64* %.39.i, align 8, !noalias !11
  %3 = bitcast i8* %.5.i.i to i64**
  %.6.i214.i149 = load i64*, i64** %3, align 8, !noalias !11
  store i64 0, i64* %.6.i214.i149, align 8, !noalias !11
  %.6.i1215.i = load { i64, i64, i8, { i64, i32, i8 } }*, { i64, i64, i8, { i64, i32, i8 } }** %2, align 8, !noalias !11
  %.51.i = getelementptr inbounds { i64, i64, i8, { i64, i32, i8 } }, { i64, i64, i8, { i64, i32, i8 } }* %.6.i1215.i, i64 0, i32 2
  store i8 0, i8* %.51.i, align 1, !noalias !11
  %.6.i418.i150 = load i64*, i64** %3, align 8, !noalias !11
  store i64 0, i64* %.6.i418.i150, align 8, !noalias !11
  store i8* null, i8** %.97.i, align 8, !noalias !11
  %.101.i = call i32 @_ZN5numba7cpython7listobj11list_extend12_3clocals_3e11list_extendB3v22B44c8tJTC_2fWQA9wW1DkAz0Pj1skAdT4gkkUlYBZmgA_3dE62list_28Tuple_28int64_2c_20int32_2c_20bool_29_29_3civ_3dNone_3e46set_28Tuple_28int64_2c_20int32_2c_20bool_29_29(i8** nonnull %.97.i, { i8*, i32, i8* }** nonnull %excinfo.1.i, i8* nonnull %.26.i, i8* null, i8* nonnull %.78, i8* null), !noalias !11
  switch i32 %.101.i, label %_ZN5numba7cpython7listobj16list_constructor12_3clocals_3e9list_implB3v21B44c8tJTC_2fWQA9wW1DkAz0Pj1skAdT4gkkUlYBZmgA_3dE46set_28Tuple_28int64_2c_20int32_2c_20bool_29_29.exit [
    i32 -2, label %_ZN5numba7cpython7listobj16list_constructor12_3clocals_3e9list_implB3v21B44c8tJTC_2fWQA9wW1DkAz0Pj1skAdT4gkkUlYBZmgA_3dE46set_28Tuple_28int64_2c_20int32_2c_20bool_29_29.exit.thread173
    i32 0, label %_ZN5numba7cpython7listobj16list_constructor12_3clocals_3e9list_implB3v21B44c8tJTC_2fWQA9wW1DkAz0Pj1skAdT4gkkUlYBZmgA_3dE46set_28Tuple_28int64_2c_20int32_2c_20bool_29_29.exit.thread173
  ]

_ZN5numba7cpython7listobj16list_constructor12_3clocals_3e9list_implB3v21B44c8tJTC_2fWQA9wW1DkAz0Pj1skAdT4gkkUlYBZmgA_3dE46set_28Tuple_28int64_2c_20int32_2c_20bool_29_29.exit.thread173: ; preds = %B0.endif.endif.endif.i, %B0.endif.endif.endif.i
  %4 = ptrtoint i8* %.26.i to i64
  call void @llvm.lifetime.end.p0i8(i64 8, i8* nonnull %0)
  call void @llvm.lifetime.end.p0i8(i64 8, i8* nonnull %1)
  %5 = bitcast { i8*, i8* }* %retptr to i64*
  store i64 %4, i64* %5, align 8
  %retptr.repack152 = getelementptr inbounds { i8*, i8* }, { i8*, i8* }* %retptr, i64 0, i32 1
  %6 = bitcast i8** %retptr.repack152 to i64*
  store i64 0, i64* %6, align 8
  tail call void @NRT_decref(i8* nonnull %.78)
  ret i32 0

_ZN5numba7cpython7listobj16list_constructor12_3clocals_3e9list_implB3v21B44c8tJTC_2fWQA9wW1DkAz0Pj1skAdT4gkkUlYBZmgA_3dE46set_28Tuple_28int64_2c_20int32_2c_20bool_29_29.exit: ; preds = %B0.endif.endif.endif.i
  %7 = bitcast { i8*, i32, i8* }** %excinfo.1.i to i64*
  %.10219.i = load i64, i64* %7, align 8, !noalias !11
  call void @llvm.lifetime.end.p0i8(i64 8, i8* nonnull %0)
  call void @llvm.lifetime.end.p0i8(i64 8, i8* nonnull %1)
  br label %for_iter.body.endif.endif.endif.if.if

calcsize.end.endif.endif.if:                      ; preds = %entry
  store { i8*, i32, i8* }* @.const.picklebuf.547599870080, { i8*, i32, i8* }** %excinfo, align 8
  ret i32 1, !ret_is_raise !15

calcsize.end.endif.endif.endif:                   ; preds = %entry
  %.5.i3 = getelementptr i8, i8* %.78, i64 24
  %8 = bitcast i8* %.5.i3 to i8**
  %.6.i4 = load i8*, i8** %8, align 8
  %9 = getelementptr inbounds i8, i8* %.6.i4, i64 32
  tail call void @llvm.memset.p0i8.i64(i8* nonnull align 1 dereferenceable(424) %9, i8 -1, i64 392, i1 false)
  %.97 = getelementptr inbounds i8, i8* %.6.i4, i64 24
  %10 = bitcast i8* %.97 to i64*
  store i64 0, i64* %10, align 8
  %.100 = getelementptr inbounds i8, i8* %.6.i4, i64 16
  %11 = bitcast i8* %.100 to i64*
  call void @llvm.memset.p0i8.i64(i8* nonnull align 8 dereferenceable(16) %.6.i4, i8 0, i64 16, i1 false)
  store i64 15, i64* %11, align 8
  %12 = bitcast i64* %.16.i.i13 to i8*
  %13 = bitcast { i8*, i32, i8* }** %excinfo.1.i.i14 to i8*
  %14 = bitcast i8* %.5.i3 to { i64, i64, i64, i64, i8, { i64, { i64, i32, i8 } } }**
  %.189 = zext i1 %.15 to i8
  %.349 = insertvalue { i64, i32, i8 } undef, i64 %arg.a.0.0, 0
  %.350 = insertvalue { i64, i32, i8 } %.349, i32 %arg.a.0.1, 1
  %.351 = insertvalue { i64, i32, i8 } %.350, i8 %.189, 2
  %.6.i6146 = load { i64, i64, i64, i64, i8, { i64, { i64, i32, i8 } } }*, { i64, i64, i64, i64, i8, { i64, { i64, i32, i8 } } }** %14, align 8
  %.184 = getelementptr inbounds { i64, i64, i64, i64, i8, { i64, { i64, i32, i8 } } }, { i64, i64, i64, i64, i8, { i64, { i64, i32, i8 } } }* %.6.i6146, i64 0, i32 5
  call void @llvm.lifetime.start.p0i8(i64 8, i8* nonnull %12) #6, !noalias !16
  call void @llvm.lifetime.start.p0i8(i64 8, i8* nonnull %13) #6, !noalias !16
  store { i8*, i32, i8* }* null, { i8*, i32, i8* }** %excinfo.1.i.i14, align 8, !noalias !20
  store i64 0, i64* %.16.i.i13, align 8, !noalias !20
  %.21.i.i16 = call i32 @_ZN5numba7cpython7hashing11_tuple_hashB2v4B42c8tJTIcFHzwl2ILiXkcBV0KBSmNGHkyiCKJEEwA_3dE5TupleIxibE(i64* nonnull %.16.i.i13, { i8*, i32, i8* }** nonnull %excinfo.1.i.i14, i64 %arg.a.0.0, i32 %arg.a.0.1, i8 %.189) #6, !noalias !20
  switch i32 %.21.i.i16, label %_ZN5numba7cpython7hashing13hash_overload12_3clocals_3e4implB2v2B42c8tJTIcFHzwl2ILiXkcBV0KBSmNGHkyiCKJEEwA_3dE5TupleIxibE.exit21 [
    i32 -2, label %for_iter.body.endif.endif.endif.endif
    i32 0, label %for_iter.body.endif.endif.endif.endif
  ]

_ZN5numba7cpython7hashing13hash_overload12_3clocals_3e4implB2v2B42c8tJTIcFHzwl2ILiXkcBV0KBSmNGHkyiCKJEEwA_3dE5TupleIxibE.exit21: ; preds = %calcsize.end.endif.endif.endif
  %15 = bitcast { i8*, i32, i8* }** %excinfo.1.i.i14 to i64*
  %.221.i.i19 = load i64, i64* %15, align 8, !noalias !20
  call void @llvm.lifetime.end.p0i8(i64 8, i8* nonnull %12) #6, !noalias !16
  call void @llvm.lifetime.end.p0i8(i64 8, i8* nonnull %13) #6, !noalias !16
  br label %for_iter.body.endif.endif.endif.if.if

for_iter.body.endif.endif.endif.endif:            ; preds = %calcsize.end.endif.endif.endif, %calcsize.end.endif.endif.endif
  %.31.i.i17 = load i64, i64* %.16.i.i13, align 8, !noalias !20
  call void @llvm.lifetime.end.p0i8(i64 8, i8* nonnull %12) #6, !noalias !16
  call void @llvm.lifetime.end.p0i8(i64 8, i8* nonnull %13) #6, !noalias !16
  %.210 = icmp ult i64 %.31.i.i17, -2
  %spec.select = select i1 %.210, i64 %.31.i.i17, i64 -43
  %.212 = getelementptr inbounds { i64, i64, i64, i64, i8, { i64, { i64, i32, i8 } } }, { i64, i64, i64, i64, i8, { i64, { i64, i32, i8 } } }* %.6.i6146, i64 0, i32 2
  %.213 = load i64, i64* %.212, align 8
  %.217 = and i64 %.213, %spec.select
  %.229 = getelementptr { i64, { i64, i32, i8 } }, { i64, { i64, i32, i8 } }* %.184, i64 %.217, i32 0
  %.230 = load i64, i64* %.229, align 8
  %.231 = icmp eq i64 %spec.select, %.230
  br i1 %.231, label %for.body.if, label %for.body.endif

for_iter.body.endif.endif.endif.if.if:            ; preds = %_ZN5numba7cpython7listobj16list_constructor12_3clocals_3e9list_implB3v21B44c8tJTC_2fWQA9wW1DkAz0Pj1skAdT4gkkUlYBZmgA_3dE46set_28Tuple_28int64_2c_20int32_2c_20bool_29_29.exit.thread, %_ZN5numba7cpython7listobj16list_constructor12_3clocals_3e9list_implB3v21B44c8tJTC_2fWQA9wW1DkAz0Pj1skAdT4gkkUlYBZmgA_3dE46set_28Tuple_28int64_2c_20int32_2c_20bool_29_29.exit, %_ZN5numba7cpython7hashing13hash_overload12_3clocals_3e4implB2v2B42c8tJTIcFHzwl2ILiXkcBV0KBSmNGHkyiCKJEEwA_3dE5TupleIxibE.exit39, %_ZN5numba7cpython7hashing13hash_overload12_3clocals_3e4implB2v2B42c8tJTIcFHzwl2ILiXkcBV0KBSmNGHkyiCKJEEwA_3dE5TupleIxibE.exit, %_ZN5numba7cpython7hashing13hash_overload12_3clocals_3e4implB2v2B42c8tJTIcFHzwl2ILiXkcBV0KBSmNGHkyiCKJEEwA_3dE5TupleIxibE.exit21
  %.221.i.i37.sink = phi i64 [ %.221.i.i37, %_ZN5numba7cpython7hashing13hash_overload12_3clocals_3e4implB2v2B42c8tJTIcFHzwl2ILiXkcBV0KBSmNGHkyiCKJEEwA_3dE5TupleIxibE.exit39 ], [ %.221.i.i, %_ZN5numba7cpython7hashing13hash_overload12_3clocals_3e4implB2v2B42c8tJTIcFHzwl2ILiXkcBV0KBSmNGHkyiCKJEEwA_3dE5TupleIxibE.exit ], [ %.221.i.i19, %_ZN5numba7cpython7hashing13hash_overload12_3clocals_3e4implB2v2B42c8tJTIcFHzwl2ILiXkcBV0KBSmNGHkyiCKJEEwA_3dE5TupleIxibE.exit21 ], [ ptrtoint ({ i8*, i32, i8* }* @.const.picklebuf.547595775296 to i64), %_ZN5numba7cpython7listobj16list_constructor12_3clocals_3e9list_implB3v21B44c8tJTC_2fWQA9wW1DkAz0Pj1skAdT4gkkUlYBZmgA_3dE46set_28Tuple_28int64_2c_20int32_2c_20bool_29_29.exit.thread ], [ %.10219.i, %_ZN5numba7cpython7listobj16list_constructor12_3clocals_3e9list_implB3v21B44c8tJTC_2fWQA9wW1DkAz0Pj1skAdT4gkkUlYBZmgA_3dE46set_28Tuple_28int64_2c_20int32_2c_20bool_29_29.exit ]
  %merge = phi i32 [ %.21.i.i34, %_ZN5numba7cpython7hashing13hash_overload12_3clocals_3e4implB2v2B42c8tJTIcFHzwl2ILiXkcBV0KBSmNGHkyiCKJEEwA_3dE5TupleIxibE.exit39 ], [ %.21.i.i, %_ZN5numba7cpython7hashing13hash_overload12_3clocals_3e4implB2v2B42c8tJTIcFHzwl2ILiXkcBV0KBSmNGHkyiCKJEEwA_3dE5TupleIxibE.exit ], [ %.21.i.i16, %_ZN5numba7cpython7hashing13hash_overload12_3clocals_3e4implB2v2B42c8tJTIcFHzwl2ILiXkcBV0KBSmNGHkyiCKJEEwA_3dE5TupleIxibE.exit21 ], [ 1, %_ZN5numba7cpython7listobj16list_constructor12_3clocals_3e9list_implB3v21B44c8tJTC_2fWQA9wW1DkAz0Pj1skAdT4gkkUlYBZmgA_3dE46set_28Tuple_28int64_2c_20int32_2c_20bool_29_29.exit.thread ], [ %.101.i, %_ZN5numba7cpython7listobj16list_constructor12_3clocals_3e9list_implB3v21B44c8tJTC_2fWQA9wW1DkAz0Pj1skAdT4gkkUlYBZmgA_3dE46set_28Tuple_28int64_2c_20int32_2c_20bool_29_29.exit ]
  %16 = bitcast { i8*, i32, i8* }** %excinfo to i64*
  store i64 %.221.i.i37.sink, i64* %16, align 8
  ret i32 %merge, !ret_is_raise !15

lookup.body:                                      ; preds = %for.body.endif.endif.endif.2, %lookup.body.endif.endif.endif
  %.214.0 = phi i64 [ %.324, %lookup.body.endif.endif.endif ], [ %spec.select, %for.body.endif.endif.endif.2 ]
  %.327.pn = phi i64 [ %.327, %lookup.body.endif.endif.endif ], [ %.272.2, %for.body.endif.endif.endif.2 ]
  %.221.0 = phi i64 [ %.221.4, %lookup.body.endif.endif.endif ], [ %.221.3.2, %for.body.endif.endif.endif.2 ]
  %.218.0 = and i64 %.327.pn, %.213
  %.280 = getelementptr { i64, { i64, i32, i8 } }, { i64, { i64, i32, i8 } }* %.184, i64 %.218.0, i32 0
  %.281 = load i64, i64* %.280, align 8
  %.282 = icmp eq i64 %spec.select, %.281
  br i1 %.282, label %lookup.body.if, label %lookup.body.endif

for.body.if:                                      ; preds = %for_iter.body.endif.endif.endif.endif
  %.233 = getelementptr { i64, { i64, i32, i8 } }, { i64, { i64, i32, i8 } }* %.184, i64 %.217, i32 1
  %.234 = load { i64, i32, i8 }, { i64, i32, i8 }* %.233, align 8
  %.235 = extractvalue { i64, i32, i8 } %.234, 0
  %.236 = extractvalue { i64, i32, i8 } %.234, 1
  %.237 = extractvalue { i64, i32, i8 } %.234, 2
  %.240 = icmp eq i8 %.237, 0
  %.249 = icmp eq i64 %.235, %arg.a.0.0
  %.253 = icmp eq i32 %.236, %arg.a.0.1
  %.254 = and i1 %.249, %.253
  %.257 = xor i1 %.15, %.240
  %.258 = and i1 %.254, %.257
  br i1 %.258, label %lookup.end.endif, label %for.body.endif

for.body.endif:                                   ; preds = %for.body.if, %for_iter.body.endif.endif.endif.endif
  switch i64 %.230, label %for.body.endif.endif.endif [
    i64 -1, label %lookup.end.if.thread
    i64 -2, label %for.body.endif.endif.if
  ]

for.body.endif.endif.if:                          ; preds = %for.body.endif
  br label %for.body.endif.endif.endif

for.body.endif.endif.endif:                       ; preds = %for.body.endif, %for.body.endif.endif.if
  %.221.3 = phi i64 [ -1, %for.body.endif ], [ %.217, %for.body.endif.endif.if ]
  %.272 = add i64 %.217, 1
  %.273 = and i64 %.272, %.213
  %.229.1 = getelementptr { i64, { i64, i32, i8 } }, { i64, { i64, i32, i8 } }* %.184, i64 %.273, i32 0
  %.230.1 = load i64, i64* %.229.1, align 8
  %.231.1 = icmp eq i64 %spec.select, %.230.1
  br i1 %.231.1, label %for.body.if.1, label %for.body.endif.1

lookup.body.if:                                   ; preds = %lookup.body
  %.284 = getelementptr { i64, { i64, i32, i8 } }, { i64, { i64, i32, i8 } }* %.184, i64 %.218.0, i32 1
  %.285 = load { i64, i32, i8 }, { i64, i32, i8 }* %.284, align 8
  %.286 = extractvalue { i64, i32, i8 } %.285, 0
  %.287 = extractvalue { i64, i32, i8 } %.285, 1
  %.288 = extractvalue { i64, i32, i8 } %.285, 2
  %.291 = icmp eq i8 %.288, 0
  %.300 = icmp eq i64 %.286, %arg.a.0.0
  %.304 = icmp eq i32 %.287, %arg.a.0.1
  %.305 = and i1 %.300, %.304
  %.308 = xor i1 %.15, %.291
  %.309 = and i1 %.305, %.308
  br i1 %.309, label %lookup.end.endif, label %lookup.body.endif

lookup.body.endif:                                ; preds = %lookup.body.if, %lookup.body
  switch i64 %.281, label %lookup.body.endif.endif.endif [
    i64 -1, label %lookup.end.if
    i64 -2, label %lookup.body.endif.endif.if
  ]

lookup.body.endif.endif.if:                       ; preds = %lookup.body.endif
  %.319 = icmp eq i64 %.221.0, -1
  %.320 = select i1 %.319, i64 %.218.0, i64 %.221.0
  br label %lookup.body.endif.endif.endif

lookup.body.endif.endif.endif:                    ; preds = %lookup.body.endif, %lookup.body.endif.endif.if
  %.221.4 = phi i64 [ %.221.0, %lookup.body.endif ], [ %.320, %lookup.body.endif.endif.if ]
  %.324 = lshr i64 %.214.0, 5
  %.325 = mul i64 %.218.0, 5
  %.326 = add nuw nsw i64 %.324, 1
  %.327 = add i64 %.326, %.325
  br label %lookup.body

lookup.end.if:                                    ; preds = %lookup.body.endif, %for.body.endif.1, %for.body.endif.2
  %.218.1 = phi i64 [ %.273, %for.body.endif.1 ], [ %.273.1, %for.body.endif.2 ], [ %.218.0, %lookup.body.endif ]
  %.221.1 = phi i64 [ %.221.3, %for.body.endif.1 ], [ %.221.3.1, %for.body.endif.2 ], [ %.221.0, %lookup.body.endif ]
  %.334 = icmp eq i64 %.221.1, -1
  br i1 %.334, label %lookup.end.if.thread, label %17

lookup.end.if.thread:                             ; preds = %for.body.endif, %lookup.end.if
  %.218.1362 = phi i64 [ %.218.1, %lookup.end.if ], [ %.217, %for.body.endif ]
  br label %17

17:                                               ; preds = %lookup.end.if, %lookup.end.if.thread
  %18 = phi i64 [ %.218.1362, %lookup.end.if.thread ], [ %.221.1, %lookup.end.if ]
  %.343 = getelementptr { i64, { i64, i32, i8 } }, { i64, { i64, i32, i8 } }* %.184, i64 %18, i32 0
  %.344 = load i64, i64* %.343, align 8
  store i64 %spec.select, i64* %.343, align 8
  %.347 = getelementptr { i64, { i64, i32, i8 } }, { i64, { i64, i32, i8 } }* %.184, i64 %18, i32 1
  store { i64, i32, i8 } %.351, { i64, i32, i8 }* %.347, align 8
  %.353 = getelementptr inbounds { i64, i64, i64, i64, i8, { i64, { i64, i32, i8 } } }, { i64, i64, i64, i64, i8, { i64, { i64, i32, i8 } } }* %.6.i6146, i64 0, i32 1
  %.354 = load i64, i64* %.353, align 8
  %.355 = add i64 %.354, 1
  store i64 %.355, i64* %.353, align 8
  %.358 = icmp eq i64 %.344, -1
  br i1 %.358, label %lookup.end.if.if, label %lookup.end.if.endif, !prof !24

lookup.end.endif:                                 ; preds = %lookup.body.if, %for.body.if, %for.body.if.1, %for.body.if.2, %lookup.end.if.endif, %for.end.1
  %.770 = zext i1 %.25 to i8
  %19 = bitcast i64* %.16.i.i to i8*
  %20 = bitcast { i8*, i32, i8* }** %excinfo.1.i.i to i8*
  %21 = bitcast { i8*, i32, i8* }** %excinfo.1.i.i to i64*
  %.930 = insertvalue { i64, i32, i8 } undef, i64 %arg.u.0, 0
  %.931 = insertvalue { i64, i32, i8 } %.930, i32 %arg.u.1, 1
  %.932 = insertvalue { i64, i32, i8 } %.931, i8 %.770, 2
  %22 = bitcast i64* %.16.i.i31 to i8*
  %23 = bitcast { i8*, i32, i8* }** %excinfo.1.i.i32 to i8*
  %.20.i.i33 = zext i1 %.34 to i8
  %24 = bitcast { i8*, i32, i8* }** %excinfo.1.i.i32 to i64*
  br label %B18.if

lookup.end.if.if:                                 ; preds = %17
  %.360 = getelementptr inbounds { i64, i64, i64, i64, i8, { i64, { i64, i32, i8 } } }, { i64, i64, i64, i64, i8, { i64, { i64, i32, i8 } } }* %.6.i6146, i64 0, i32 0
  %.361 = load i64, i64* %.360, align 8
  %.362 = add i64 %.361, 1
  store i64 %.362, i64* %.360, align 8
  br label %lookup.end.if.endif

lookup.end.if.endif:                              ; preds = %lookup.end.if.if, %17
  %.6.i24 = load i8*, i8** %8, align 8
  %.370 = getelementptr inbounds i8, i8* %.6.i24, i64 40
  %25 = bitcast i8* %.370 to { i64, { i64, i32, i8 } }*
  %.371 = shl i64 %.355, 1
  %.372 = getelementptr inbounds i8, i8* %.6.i24, i64 16
  %26 = bitcast i8* %.372 to i64*
  %.373 = load i64, i64* %26, align 8
  %.374 = add i64 %.373, 1
  %.375.not = icmp ult i64 %.371, %.374
  br i1 %.375.not, label %lookup.end.endif, label %calcsize.body.1, !prof !24

calcsize.body.1:                                  ; preds = %lookup.end.if.endif, %calcsize.body.1
  %.377.0 = phi i64 [ %.382, %calcsize.body.1 ], [ %.374, %lookup.end.if.endif ]
  %.382 = shl i64 %.377.0, 2
  %.384.not = icmp ult i64 %.371, %.382
  br i1 %.384.not, label %calcsize.end.1, label %calcsize.body.1

calcsize.end.1:                                   ; preds = %calcsize.body.1
  %.390 = tail call { i64, i1 } @llvm.smul.with.overflow.i64(i64 %.382, i64 24)
  %.391 = extractvalue { i64, i1 } %.390, 0
  %.392 = extractvalue { i64, i1 } %.390, 1
  %.393 = tail call { i64, i1 } @llvm.sadd.with.overflow.i64(i64 %.391, i64 40)
  %.394 = extractvalue { i64, i1 } %.393, 0
  %.395 = extractvalue { i64, i1 } %.393, 1
  %.396 = or i1 %.392, %.395
  br i1 %.396, label %calcsize.end.1.endif.endif.if, label %calcsize.end.1.endif.if, !prof !2

calcsize.end.1.endif.if:                          ; preds = %calcsize.end.1
  %.404 = tail call i8* @NRT_MemInfo_varsize_alloc(i8* nonnull %.78, i64 %.394)
  %.405 = icmp eq i8* %.404, null
  br i1 %.405, label %calcsize.end.1.endif.endif.if, label %calcsize.end.1.endif.endif.endif, !prof !2

calcsize.end.1.endif.endif.if:                    ; preds = %calcsize.end.1, %calcsize.end.1.endif.if
  store { i8*, i32, i8* }* @.const.picklebuf.547600117248, { i8*, i32, i8* }** %excinfo, align 8
  ret i32 1, !ret_is_raise !15

calcsize.end.1.endif.endif.endif:                 ; preds = %calcsize.end.1.endif.if
  %.6.i42 = load i8*, i8** %8, align 8
  tail call void @llvm.memset.p0i8.i64(i8* nonnull align 1 dereferenceable(1) %.6.i42, i8 -1, i64 %.394, i1 false)
  %.419 = getelementptr inbounds i8, i8* %.6.i42, i64 24
  %27 = bitcast i8* %.419 to i64*
  store i64 0, i64* %27, align 8
  %.421 = add nsw i64 %.382, -1
  %.422 = getelementptr inbounds i8, i8* %.6.i42, i64 16
  %28 = bitcast i8* %.422 to i64*
  call void @llvm.memset.p0i8.i64(i8* nonnull align 8 dereferenceable(16) %.6.i42, i8 0, i64 16, i1 false)
  store i64 %.421, i64* %28, align 8
  %.6.i46148 = load { i64, i64, i64, i64, i8, { i64, { i64, i32, i8 } } }*, { i64, i64, i64, i64, i8, { i64, { i64, i32, i8 } } }** %14, align 8
  %.438 = getelementptr inbounds { i64, i64, i64, i64, i8, { i64, { i64, i32, i8 } } }, { i64, i64, i64, i64, i8, { i64, { i64, i32, i8 } } }* %.6.i46148, i64 0, i32 5
  %.440 = load i64, i64* %26, align 8
  %.441 = add i64 %.440, 1
  %.443113 = icmp sgt i64 %.441, 0
  br i1 %.443113, label %for.body.1.lr.ph, label %for.end.1

for.body.1.lr.ph:                                 ; preds = %calcsize.end.1.endif.endif.endif
  %.466 = getelementptr inbounds { i64, i64, i64, i64, i8, { i64, { i64, i32, i8 } } }, { i64, i64, i64, i64, i8, { i64, { i64, i32, i8 } } }* %.6.i46148, i64 0, i32 2
  %.607 = getelementptr inbounds { i64, i64, i64, i64, i8, { i64, { i64, i32, i8 } } }, { i64, i64, i64, i64, i8, { i64, { i64, i32, i8 } } }* %.6.i46148, i64 0, i32 1
  %.614 = getelementptr inbounds { i64, i64, i64, i64, i8, { i64, { i64, i32, i8 } } }, { i64, i64, i64, i64, i8, { i64, { i64, i32, i8 } } }* %.6.i46148, i64 0, i32 0
  br label %for.body.1

for.body.1:                                       ; preds = %for.body.1.endif, %for.body.1.lr.ph
  %loop.index.1114 = phi i64 [ 0, %for.body.1.lr.ph ], [ %.622, %for.body.1.endif ]
  %.446 = getelementptr { i64, { i64, i32, i8 } }, { i64, { i64, i32, i8 } }* %25, i64 %loop.index.1114, i32 0
  %.447 = load i64, i64* %.446, align 8
  %.448 = icmp ult i64 %.447, -2
  br i1 %.448, label %for.body.1.if, label %for.body.1.endif

for.end.1:                                        ; preds = %for.body.1.endif, %calcsize.end.1.endif.endif.endif
  tail call void @NRT_MemInfo_varsize_free(i8* nonnull %.78, i8* %.6.i24)
  br label %lookup.end.endif

for.body.1.if:                                    ; preds = %for.body.1
  %.450 = getelementptr { i64, { i64, i32, i8 } }, { i64, { i64, i32, i8 } }* %25, i64 %loop.index.1114, i32 1
  %.451 = load { i64, i32, i8 }, { i64, i32, i8 }* %.450, align 8
  %.452 = extractvalue { i64, i32, i8 } %.451, 0
  %.453 = extractvalue { i64, i32, i8 } %.451, 1
  %.454 = extractvalue { i64, i32, i8 } %.451, 2
  %.457 = icmp ne i8 %.454, 0
  %.467 = load i64, i64* %.466, align 8
  %.471 = and i64 %.467, %.447
  %.483 = getelementptr { i64, { i64, i32, i8 } }, { i64, { i64, i32, i8 } }* %.438, i64 %.471, i32 0
  %.484 = load i64, i64* %.483, align 8
  %.485 = icmp eq i64 %.447, %.484
  br i1 %.485, label %for.body.2.if, label %for.body.2.endif

for.body.1.endif:                                 ; preds = %lookup.body.1.if, %for.body.2.if, %for.body.2.if.1, %for.body.2.if.2, %29, %lookup.end.1.if.if, %for.body.1
  %.622 = add nuw nsw i64 %loop.index.1114, 1
  %exitcond358.not = icmp eq i64 %loop.index.1114, %.440
  br i1 %exitcond358.not, label %for.end.1, label %for.body.1

lookup.body.1:                                    ; preds = %for.body.2.endif.endif.endif.2, %lookup.body.1.endif.endif.endif
  %.468.0 = phi i64 [ %.578, %lookup.body.1.endif.endif.endif ], [ %.447, %for.body.2.endif.endif.endif.2 ]
  %.581.pn = phi i64 [ %.581, %lookup.body.1.endif.endif.endif ], [ %.526.2, %for.body.2.endif.endif.endif.2 ]
  %.475.0 = phi i64 [ %.475.4, %lookup.body.1.endif.endif.endif ], [ %.475.3.2, %for.body.2.endif.endif.endif.2 ]
  %.472.0 = and i64 %.581.pn, %.467
  %.534 = getelementptr { i64, { i64, i32, i8 } }, { i64, { i64, i32, i8 } }* %.438, i64 %.472.0, i32 0
  %.535 = load i64, i64* %.534, align 8
  %.536 = icmp eq i64 %.447, %.535
  br i1 %.536, label %lookup.body.1.if, label %lookup.body.1.endif

for.body.2.if:                                    ; preds = %for.body.1.if
  %.487 = getelementptr { i64, { i64, i32, i8 } }, { i64, { i64, i32, i8 } }* %.438, i64 %.471, i32 1
  %.488 = load { i64, i32, i8 }, { i64, i32, i8 }* %.487, align 8
  %.489 = extractvalue { i64, i32, i8 } %.488, 0
  %.490 = extractvalue { i64, i32, i8 } %.488, 1
  %.491 = extractvalue { i64, i32, i8 } %.488, 2
  %.494 = icmp eq i8 %.491, 0
  %.503 = icmp eq i64 %.452, %.489
  %.507 = icmp eq i32 %.453, %.490
  %.508 = and i1 %.503, %.507
  %.511 = xor i1 %.457, %.494
  %.512 = and i1 %.508, %.511
  br i1 %.512, label %for.body.1.endif, label %for.body.2.endif

for.body.2.endif:                                 ; preds = %for.body.2.if, %for.body.1.if
  switch i64 %.484, label %for.body.2.endif.endif.endif [
    i64 -1, label %lookup.end.1.if.thread
    i64 -2, label %for.body.2.endif.endif.if
  ]

for.body.2.endif.endif.if:                        ; preds = %for.body.2.endif
  br label %for.body.2.endif.endif.endif

for.body.2.endif.endif.endif:                     ; preds = %for.body.2.endif, %for.body.2.endif.endif.if
  %.475.3 = phi i64 [ -1, %for.body.2.endif ], [ %.471, %for.body.2.endif.endif.if ]
  %.526 = add nuw i64 %.471, 1
  %.527 = and i64 %.526, %.467
  %.483.1 = getelementptr { i64, { i64, i32, i8 } }, { i64, { i64, i32, i8 } }* %.438, i64 %.527, i32 0
  %.484.1 = load i64, i64* %.483.1, align 8
  %.485.1 = icmp eq i64 %.447, %.484.1
  br i1 %.485.1, label %for.body.2.if.1, label %for.body.2.endif.1

lookup.body.1.if:                                 ; preds = %lookup.body.1
  %.538 = getelementptr { i64, { i64, i32, i8 } }, { i64, { i64, i32, i8 } }* %.438, i64 %.472.0, i32 1
  %.539 = load { i64, i32, i8 }, { i64, i32, i8 }* %.538, align 8
  %.540 = extractvalue { i64, i32, i8 } %.539, 0
  %.541 = extractvalue { i64, i32, i8 } %.539, 1
  %.542 = extractvalue { i64, i32, i8 } %.539, 2
  %.545 = icmp eq i8 %.542, 0
  %.554 = icmp eq i64 %.452, %.540
  %.558 = icmp eq i32 %.453, %.541
  %.559 = and i1 %.554, %.558
  %.562 = xor i1 %.457, %.545
  %.563 = and i1 %.559, %.562
  br i1 %.563, label %for.body.1.endif, label %lookup.body.1.endif

lookup.body.1.endif:                              ; preds = %lookup.body.1.if, %lookup.body.1
  switch i64 %.535, label %lookup.body.1.endif.endif.endif [
    i64 -1, label %lookup.end.1.if
    i64 -2, label %lookup.body.1.endif.endif.if
  ]

lookup.body.1.endif.endif.if:                     ; preds = %lookup.body.1.endif
  %.573 = icmp eq i64 %.475.0, -1
  %.574 = select i1 %.573, i64 %.472.0, i64 %.475.0
  br label %lookup.body.1.endif.endif.endif

lookup.body.1.endif.endif.endif:                  ; preds = %lookup.body.1.endif, %lookup.body.1.endif.endif.if
  %.475.4 = phi i64 [ %.475.0, %lookup.body.1.endif ], [ %.574, %lookup.body.1.endif.endif.if ]
  %.578 = lshr i64 %.468.0, 5
  %.579 = mul i64 %.472.0, 5
  %.580 = add nuw nsw i64 %.578, 1
  %.581 = add i64 %.580, %.579
  br label %lookup.body.1

lookup.end.1.if:                                  ; preds = %lookup.body.1.endif, %for.body.2.endif.1, %for.body.2.endif.2
  %.472.1 = phi i64 [ %.527, %for.body.2.endif.1 ], [ %.527.1, %for.body.2.endif.2 ], [ %.472.0, %lookup.body.1.endif ]
  %.475.1 = phi i64 [ %.475.3, %for.body.2.endif.1 ], [ %.475.3.1, %for.body.2.endif.2 ], [ %.475.0, %lookup.body.1.endif ]
  %.588 = icmp eq i64 %.475.1, -1
  br i1 %.588, label %lookup.end.1.if.thread, label %29

lookup.end.1.if.thread:                           ; preds = %for.body.2.endif, %lookup.end.1.if
  %.472.1366 = phi i64 [ %.472.1, %lookup.end.1.if ], [ %.471, %for.body.2.endif ]
  br label %29

29:                                               ; preds = %lookup.end.1.if, %lookup.end.1.if.thread
  %30 = phi i64 [ %.472.1366, %lookup.end.1.if.thread ], [ %.475.1, %lookup.end.1.if ]
  %.597 = getelementptr { i64, { i64, i32, i8 } }, { i64, { i64, i32, i8 } }* %.438, i64 %30, i32 0
  %.598 = load i64, i64* %.597, align 8
  store i64 %.447, i64* %.597, align 8
  %.601 = getelementptr { i64, { i64, i32, i8 } }, { i64, { i64, i32, i8 } }* %.438, i64 %30, i32 1
  %.602 = zext i1 %.457 to i8
  %.605 = insertvalue { i64, i32, i8 } %.451, i8 %.602, 2
  store { i64, i32, i8 } %.605, { i64, i32, i8 }* %.601, align 8
  %.608 = load i64, i64* %.607, align 8
  %.609 = add i64 %.608, 1
  store i64 %.609, i64* %.607, align 8
  %.612 = icmp eq i64 %.598, -1
  br i1 %.612, label %lookup.end.1.if.if, label %for.body.1.endif, !prof !24

lookup.end.1.if.if:                               ; preds = %29
  %.615 = load i64, i64* %.614, align 8
  %.616 = add i64 %.615, 1
  store i64 %.616, i64* %.614, align 8
  br label %for.body.1.endif

B18.if:                                           ; preds = %lookup.end.endif, %lookup.end.4.endif
  %.663.0296 = phi i64 [ 1000, %lookup.end.endif ], [ %.725, %lookup.end.4.endif ]
  %.725 = add nsw i64 %.663.0296, -1
  tail call void @NRT_incref(i8* nonnull %.78)
  %.6.i156 = load { i64, i64, i64, i64, i8, { i64, { i64, i32, i8 } } }*, { i64, i64, i64, i64, i8, { i64, { i64, i32, i8 } } }** %14, align 8
  %.765 = getelementptr inbounds { i64, i64, i64, i64, i8, { i64, { i64, i32, i8 } } }, { i64, i64, i64, i64, i8, { i64, { i64, i32, i8 } } }* %.6.i156, i64 0, i32 5
  call void @llvm.lifetime.start.p0i8(i64 8, i8* nonnull %19) #6, !noalias !10
  call void @llvm.lifetime.start.p0i8(i64 8, i8* nonnull %20) #6, !noalias !10
  store { i8*, i32, i8* }* null, { i8*, i32, i8* }** %excinfo.1.i.i, align 8, !noalias !3
  store i64 0, i64* %.16.i.i, align 8, !noalias !3
  %.21.i.i = call i32 @_ZN5numba7cpython7hashing11_tuple_hashB2v4B42c8tJTIcFHzwl2ILiXkcBV0KBSmNGHkyiCKJEEwA_3dE5TupleIxibE(i64* nonnull %.16.i.i, { i8*, i32, i8* }** nonnull %excinfo.1.i.i, i64 %arg.u.0, i32 %arg.u.1, i8 %.770) #6, !noalias !3
  switch i32 %.21.i.i, label %_ZN5numba7cpython7hashing13hash_overload12_3clocals_3e4implB2v2B42c8tJTIcFHzwl2ILiXkcBV0KBSmNGHkyiCKJEEwA_3dE5TupleIxibE.exit [
    i32 -2, label %B20.endif
    i32 0, label %B20.endif
  ]

B20.endif:                                        ; preds = %B18.if, %B18.if
  %.31.i.i = load i64, i64* %.16.i.i, align 8, !noalias !3
  call void @llvm.lifetime.end.p0i8(i64 8, i8* nonnull %19) #6, !noalias !10
  call void @llvm.lifetime.end.p0i8(i64 8, i8* nonnull %20) #6, !noalias !10
  %.791 = icmp ult i64 %.31.i.i, -2
  %spec.select244 = select i1 %.791, i64 %.31.i.i, i64 -43
  %.793 = getelementptr inbounds { i64, i64, i64, i64, i8, { i64, { i64, i32, i8 } } }, { i64, i64, i64, i64, i8, { i64, { i64, i32, i8 } } }* %.6.i156, i64 0, i32 2
  %.794 = load i64, i64* %.793, align 8
  %.798 = and i64 %.794, %spec.select244
  %.810 = getelementptr { i64, { i64, i32, i8 } }, { i64, { i64, i32, i8 } }* %.765, i64 %.798, i32 0
  %.811 = load i64, i64* %.810, align 8
  %.812 = icmp eq i64 %spec.select244, %.811
  br i1 %.812, label %for.body.3.if, label %for.body.3.endif

lookup.body.2:                                    ; preds = %for.body.3.endif.endif.endif.2, %lookup.body.2.endif.endif.endif
  %.795.0 = phi i64 [ %.905, %lookup.body.2.endif.endif.endif ], [ %spec.select244, %for.body.3.endif.endif.endif.2 ]
  %.908.pn = phi i64 [ %.908, %lookup.body.2.endif.endif.endif ], [ %.853.2, %for.body.3.endif.endif.endif.2 ]
  %.802.0 = phi i64 [ %.802.4, %lookup.body.2.endif.endif.endif ], [ %.802.3.2, %for.body.3.endif.endif.endif.2 ]
  %.799.0 = and i64 %.908.pn, %.794
  %.861 = getelementptr { i64, { i64, i32, i8 } }, { i64, { i64, i32, i8 } }* %.765, i64 %.799.0, i32 0
  %.862 = load i64, i64* %.861, align 8
  %.863 = icmp eq i64 %spec.select244, %.862
  br i1 %.863, label %lookup.body.2.if, label %lookup.body.2.endif

for.body.3.if:                                    ; preds = %B20.endif
  %.814 = getelementptr { i64, { i64, i32, i8 } }, { i64, { i64, i32, i8 } }* %.765, i64 %.798, i32 1
  %.815 = load { i64, i32, i8 }, { i64, i32, i8 }* %.814, align 8
  %.816 = extractvalue { i64, i32, i8 } %.815, 0
  %.817 = extractvalue { i64, i32, i8 } %.815, 1
  %.818 = extractvalue { i64, i32, i8 } %.815, 2
  %.821 = icmp eq i8 %.818, 0
  %.830 = icmp eq i64 %.816, %arg.u.0
  %.834 = icmp eq i32 %.817, %arg.u.1
  %.835 = and i1 %.830, %.834
  %.838 = xor i1 %.25, %.821
  %.839 = and i1 %.835, %.838
  br i1 %.839, label %lookup.end.2.endif, label %for.body.3.endif

for.body.3.endif:                                 ; preds = %for.body.3.if, %B20.endif
  switch i64 %.811, label %for.body.3.endif.endif.endif [
    i64 -1, label %lookup.end.2.if.thread
    i64 -2, label %for.body.3.endif.endif.if
  ]

for.body.3.endif.endif.if:                        ; preds = %for.body.3.endif
  br label %for.body.3.endif.endif.endif

for.body.3.endif.endif.endif:                     ; preds = %for.body.3.endif, %for.body.3.endif.endif.if
  %.802.3 = phi i64 [ -1, %for.body.3.endif ], [ %.798, %for.body.3.endif.endif.if ]
  %.853 = add i64 %.798, 1
  %.854 = and i64 %.853, %.794
  %.810.1 = getelementptr { i64, { i64, i32, i8 } }, { i64, { i64, i32, i8 } }* %.765, i64 %.854, i32 0
  %.811.1 = load i64, i64* %.810.1, align 8
  %.812.1 = icmp eq i64 %spec.select244, %.811.1
  br i1 %.812.1, label %for.body.3.if.1, label %for.body.3.endif.1

lookup.body.2.if:                                 ; preds = %lookup.body.2
  %.865 = getelementptr { i64, { i64, i32, i8 } }, { i64, { i64, i32, i8 } }* %.765, i64 %.799.0, i32 1
  %.866 = load { i64, i32, i8 }, { i64, i32, i8 }* %.865, align 8
  %.867 = extractvalue { i64, i32, i8 } %.866, 0
  %.868 = extractvalue { i64, i32, i8 } %.866, 1
  %.869 = extractvalue { i64, i32, i8 } %.866, 2
  %.872 = icmp eq i8 %.869, 0
  %.881 = icmp eq i64 %.867, %arg.u.0
  %.885 = icmp eq i32 %.868, %arg.u.1
  %.886 = and i1 %.881, %.885
  %.889 = xor i1 %.25, %.872
  %.890 = and i1 %.886, %.889
  br i1 %.890, label %lookup.end.2.endif, label %lookup.body.2.endif

lookup.body.2.endif:                              ; preds = %lookup.body.2.if, %lookup.body.2
  switch i64 %.862, label %lookup.body.2.endif.endif.endif [
    i64 -1, label %lookup.end.2.if
    i64 -2, label %lookup.body.2.endif.endif.if
  ]

lookup.body.2.endif.endif.if:                     ; preds = %lookup.body.2.endif
  %.900 = icmp eq i64 %.802.0, -1
  %.901 = select i1 %.900, i64 %.799.0, i64 %.802.0
  br label %lookup.body.2.endif.endif.endif

lookup.body.2.endif.endif.endif:                  ; preds = %lookup.body.2.endif, %lookup.body.2.endif.endif.if
  %.802.4 = phi i64 [ %.802.0, %lookup.body.2.endif ], [ %.901, %lookup.body.2.endif.endif.if ]
  %.905 = lshr i64 %.795.0, 5
  %.906 = mul i64 %.799.0, 5
  %.907 = add nuw nsw i64 %.905, 1
  %.908 = add i64 %.907, %.906
  br label %lookup.body.2

lookup.end.2.if:                                  ; preds = %lookup.body.2.endif, %for.body.3.endif.1, %for.body.3.endif.2
  %.799.1 = phi i64 [ %.854, %for.body.3.endif.1 ], [ %.854.1, %for.body.3.endif.2 ], [ %.799.0, %lookup.body.2.endif ]
  %.802.1 = phi i64 [ %.802.3, %for.body.3.endif.1 ], [ %.802.3.1, %for.body.3.endif.2 ], [ %.802.0, %lookup.body.2.endif ]
  %.915 = icmp eq i64 %.802.1, -1
  br i1 %.915, label %lookup.end.2.if.thread, label %31

lookup.end.2.if.thread:                           ; preds = %for.body.3.endif, %lookup.end.2.if
  %.799.1370 = phi i64 [ %.799.1, %lookup.end.2.if ], [ %.798, %for.body.3.endif ]
  br label %31

31:                                               ; preds = %lookup.end.2.if, %lookup.end.2.if.thread
  %32 = phi i64 [ %.799.1370, %lookup.end.2.if.thread ], [ %.802.1, %lookup.end.2.if ]
  %.924 = getelementptr { i64, { i64, i32, i8 } }, { i64, { i64, i32, i8 } }* %.765, i64 %32, i32 0
  %.925 = load i64, i64* %.924, align 8
  store i64 %spec.select244, i64* %.924, align 8
  %.928 = getelementptr { i64, { i64, i32, i8 } }, { i64, { i64, i32, i8 } }* %.765, i64 %32, i32 1
  store { i64, i32, i8 } %.932, { i64, i32, i8 }* %.928, align 8
  %.934 = getelementptr inbounds { i64, i64, i64, i64, i8, { i64, { i64, i32, i8 } } }, { i64, i64, i64, i64, i8, { i64, { i64, i32, i8 } } }* %.6.i156, i64 0, i32 1
  %.935 = load i64, i64* %.934, align 8
  %.936 = add i64 %.935, 1
  store i64 %.936, i64* %.934, align 8
  %.939 = icmp eq i64 %.925, -1
  br i1 %.939, label %lookup.end.2.if.if, label %lookup.end.2.if.endif, !prof !24

lookup.end.2.endif:                               ; preds = %lookup.body.2.if, %for.body.3.if, %for.body.3.if.1, %for.body.3.if.2, %lookup.end.2.if.endif, %for.end.4
  %.6.i44158 = load { i64, i64, i64, i64, i8, { i64, { i64, i32, i8 } } }*, { i64, i64, i64, i64, i8, { i64, { i64, i32, i8 } } }** %14, align 8
  %.1222 = getelementptr inbounds { i64, i64, i64, i64, i8, { i64, { i64, i32, i8 } } }, { i64, i64, i64, i64, i8, { i64, { i64, i32, i8 } } }* %.6.i44158, i64 0, i32 5
  call void @llvm.lifetime.start.p0i8(i64 8, i8* nonnull %22) #6, !noalias !25
  call void @llvm.lifetime.start.p0i8(i64 8, i8* nonnull %23) #6, !noalias !25
  store { i8*, i32, i8* }* null, { i8*, i32, i8* }** %excinfo.1.i.i32, align 8, !noalias !29
  store i64 0, i64* %.16.i.i31, align 8, !noalias !29
  %.21.i.i34 = call i32 @_ZN5numba7cpython7hashing11_tuple_hashB2v4B42c8tJTIcFHzwl2ILiXkcBV0KBSmNGHkyiCKJEEwA_3dE5TupleIxibE(i64* nonnull %.16.i.i31, { i8*, i32, i8* }** nonnull %excinfo.1.i.i32, i64 %arg.v.0, i32 %arg.v.1, i8 %.20.i.i33) #6, !noalias !29
  switch i32 %.21.i.i34, label %_ZN5numba7cpython7hashing13hash_overload12_3clocals_3e4implB2v2B42c8tJTIcFHzwl2ILiXkcBV0KBSmNGHkyiCKJEEwA_3dE5TupleIxibE.exit39 [
    i32 -2, label %lookup.end.2.endif.endif
    i32 0, label %lookup.end.2.endif.endif
  ]

_ZN5numba7cpython7hashing13hash_overload12_3clocals_3e4implB2v2B42c8tJTIcFHzwl2ILiXkcBV0KBSmNGHkyiCKJEEwA_3dE5TupleIxibE.exit39: ; preds = %lookup.end.2.endif
  %.221.i.i37 = load i64, i64* %24, align 8, !noalias !29
  call void @llvm.lifetime.end.p0i8(i64 8, i8* nonnull %22) #6, !noalias !25
  call void @llvm.lifetime.end.p0i8(i64 8, i8* nonnull %23) #6, !noalias !25
  br label %for_iter.body.endif.endif.endif.if.if

lookup.end.2.if.if:                               ; preds = %31
  %.941 = getelementptr inbounds { i64, i64, i64, i64, i8, { i64, { i64, i32, i8 } } }, { i64, i64, i64, i64, i8, { i64, { i64, i32, i8 } } }* %.6.i156, i64 0, i32 0
  %.942 = load i64, i64* %.941, align 8
  %.943 = add i64 %.942, 1
  store i64 %.943, i64* %.941, align 8
  br label %lookup.end.2.if.endif

lookup.end.2.if.endif:                            ; preds = %lookup.end.2.if.if, %31
  %.6.i30 = load i8*, i8** %8, align 8
  %.951 = getelementptr inbounds i8, i8* %.6.i30, i64 40
  %33 = bitcast i8* %.951 to { i64, { i64, i32, i8 } }*
  %.952 = shl i64 %.936, 1
  %.953 = getelementptr inbounds i8, i8* %.6.i30, i64 16
  %34 = bitcast i8* %.953 to i64*
  %.954 = load i64, i64* %34, align 8
  %.955 = add i64 %.954, 1
  %.956.not = icmp ult i64 %.952, %.955
  br i1 %.956.not, label %lookup.end.2.endif, label %calcsize.body.2, !prof !24

calcsize.body.2:                                  ; preds = %lookup.end.2.if.endif, %calcsize.body.2
  %.958.0 = phi i64 [ %.963, %calcsize.body.2 ], [ %.955, %lookup.end.2.if.endif ]
  %.963 = shl i64 %.958.0, 2
  %.965.not = icmp ult i64 %.952, %.963
  br i1 %.965.not, label %calcsize.end.2, label %calcsize.body.2

calcsize.end.2:                                   ; preds = %calcsize.body.2
  %.971 = tail call { i64, i1 } @llvm.smul.with.overflow.i64(i64 %.963, i64 24)
  %.972 = extractvalue { i64, i1 } %.971, 0
  %.973 = extractvalue { i64, i1 } %.971, 1
  %.974 = tail call { i64, i1 } @llvm.sadd.with.overflow.i64(i64 %.972, i64 40)
  %.975 = extractvalue { i64, i1 } %.974, 0
  %.976 = extractvalue { i64, i1 } %.974, 1
  %.977 = or i1 %.973, %.976
  br i1 %.977, label %calcsize.end.2.endif.endif.if, label %calcsize.end.2.endif.if, !prof !2

calcsize.end.2.endif.if:                          ; preds = %calcsize.end.2
  %.985 = tail call i8* @NRT_MemInfo_varsize_alloc(i8* nonnull %.78, i64 %.975)
  %.986 = icmp eq i8* %.985, null
  br i1 %.986, label %calcsize.end.2.endif.endif.if, label %calcsize.end.2.endif.endif.endif, !prof !2

calcsize.end.2.endif.endif.if:                    ; preds = %calcsize.end.2, %calcsize.end.2.endif.if
  store { i8*, i32, i8* }* @.const.picklebuf.547600117248, { i8*, i32, i8* }** %excinfo, align 8
  ret i32 1, !ret_is_raise !15

calcsize.end.2.endif.endif.endif:                 ; preds = %calcsize.end.2.endif.if
  %.6.i28 = load i8*, i8** %8, align 8
  tail call void @llvm.memset.p0i8.i64(i8* nonnull align 1 dereferenceable(1) %.6.i28, i8 -1, i64 %.975, i1 false)
  %.1000 = getelementptr inbounds i8, i8* %.6.i28, i64 24
  %35 = bitcast i8* %.1000 to i64*
  store i64 0, i64* %35, align 8
  %.1002 = add nsw i64 %.963, -1
  %.1003 = getelementptr inbounds i8, i8* %.6.i28, i64 16
  %36 = bitcast i8* %.1003 to i64*
  call void @llvm.memset.p0i8.i64(i8* nonnull align 8 dereferenceable(16) %.6.i28, i8 0, i64 16, i1 false)
  store i64 %.1002, i64* %36, align 8
  %.6.i26161 = load { i64, i64, i64, i64, i8, { i64, { i64, i32, i8 } } }*, { i64, i64, i64, i64, i8, { i64, { i64, i32, i8 } } }** %14, align 8
  %.1019 = getelementptr inbounds { i64, i64, i64, i64, i8, { i64, { i64, i32, i8 } } }, { i64, i64, i64, i64, i8, { i64, { i64, i32, i8 } } }* %.6.i26161, i64 0, i32 5
  %.1021 = load i64, i64* %34, align 8
  %.1022 = add i64 %.1021, 1
  %.102498 = icmp sgt i64 %.1022, 0
  br i1 %.102498, label %for.body.4.lr.ph, label %for.end.4

for.body.4.lr.ph:                                 ; preds = %calcsize.end.2.endif.endif.endif
  %.1047 = getelementptr inbounds { i64, i64, i64, i64, i8, { i64, { i64, i32, i8 } } }, { i64, i64, i64, i64, i8, { i64, { i64, i32, i8 } } }* %.6.i26161, i64 0, i32 2
  %.1188 = getelementptr inbounds { i64, i64, i64, i64, i8, { i64, { i64, i32, i8 } } }, { i64, i64, i64, i64, i8, { i64, { i64, i32, i8 } } }* %.6.i26161, i64 0, i32 1
  %.1195 = getelementptr inbounds { i64, i64, i64, i64, i8, { i64, { i64, i32, i8 } } }, { i64, i64, i64, i64, i8, { i64, { i64, i32, i8 } } }* %.6.i26161, i64 0, i32 0
  br label %for.body.4

for.body.4:                                       ; preds = %for.body.4.endif, %for.body.4.lr.ph
  %loop.index.499 = phi i64 [ 0, %for.body.4.lr.ph ], [ %.1203, %for.body.4.endif ]
  %.1027 = getelementptr { i64, { i64, i32, i8 } }, { i64, { i64, i32, i8 } }* %33, i64 %loop.index.499, i32 0
  %.1028 = load i64, i64* %.1027, align 8
  %.1029 = icmp ult i64 %.1028, -2
  br i1 %.1029, label %for.body.4.if, label %for.body.4.endif

for.end.4:                                        ; preds = %for.body.4.endif, %calcsize.end.2.endif.endif.endif
  tail call void @NRT_MemInfo_varsize_free(i8* nonnull %.78, i8* %.6.i30)
  br label %lookup.end.2.endif

for.body.4.if:                                    ; preds = %for.body.4
  %.1031 = getelementptr { i64, { i64, i32, i8 } }, { i64, { i64, i32, i8 } }* %33, i64 %loop.index.499, i32 1
  %.1032 = load { i64, i32, i8 }, { i64, i32, i8 }* %.1031, align 8
  %.1033 = extractvalue { i64, i32, i8 } %.1032, 0
  %.1034 = extractvalue { i64, i32, i8 } %.1032, 1
  %.1035 = extractvalue { i64, i32, i8 } %.1032, 2
  %.1038 = icmp ne i8 %.1035, 0
  %.1048 = load i64, i64* %.1047, align 8
  %.1052 = and i64 %.1048, %.1028
  %.1064 = getelementptr { i64, { i64, i32, i8 } }, { i64, { i64, i32, i8 } }* %.1019, i64 %.1052, i32 0
  %.1065 = load i64, i64* %.1064, align 8
  %.1066 = icmp eq i64 %.1028, %.1065
  br i1 %.1066, label %for.body.5.if, label %for.body.5.endif

for.body.4.endif:                                 ; preds = %lookup.body.3.if, %for.body.5.if, %for.body.5.if.1, %for.body.5.if.2, %37, %lookup.end.3.if.if, %for.body.4
  %.1203 = add nuw nsw i64 %loop.index.499, 1
  %exitcond.not = icmp eq i64 %loop.index.499, %.1021
  br i1 %exitcond.not, label %for.end.4, label %for.body.4

lookup.body.3:                                    ; preds = %for.body.5.endif.endif.endif.2, %lookup.body.3.endif.endif.endif
  %.1049.0 = phi i64 [ %.1159, %lookup.body.3.endif.endif.endif ], [ %.1028, %for.body.5.endif.endif.endif.2 ]
  %.1162.pn = phi i64 [ %.1162, %lookup.body.3.endif.endif.endif ], [ %.1107.2, %for.body.5.endif.endif.endif.2 ]
  %.1056.0 = phi i64 [ %.1056.4, %lookup.body.3.endif.endif.endif ], [ %.1056.3.2, %for.body.5.endif.endif.endif.2 ]
  %.1053.0 = and i64 %.1162.pn, %.1048
  %.1115 = getelementptr { i64, { i64, i32, i8 } }, { i64, { i64, i32, i8 } }* %.1019, i64 %.1053.0, i32 0
  %.1116 = load i64, i64* %.1115, align 8
  %.1117 = icmp eq i64 %.1028, %.1116
  br i1 %.1117, label %lookup.body.3.if, label %lookup.body.3.endif

for.body.5.if:                                    ; preds = %for.body.4.if
  %.1068 = getelementptr { i64, { i64, i32, i8 } }, { i64, { i64, i32, i8 } }* %.1019, i64 %.1052, i32 1
  %.1069 = load { i64, i32, i8 }, { i64, i32, i8 }* %.1068, align 8
  %.1070 = extractvalue { i64, i32, i8 } %.1069, 0
  %.1071 = extractvalue { i64, i32, i8 } %.1069, 1
  %.1072 = extractvalue { i64, i32, i8 } %.1069, 2
  %.1075 = icmp eq i8 %.1072, 0
  %.1084 = icmp eq i64 %.1033, %.1070
  %.1088 = icmp eq i32 %.1034, %.1071
  %.1089 = and i1 %.1084, %.1088
  %.1092 = xor i1 %.1038, %.1075
  %.1093 = and i1 %.1089, %.1092
  br i1 %.1093, label %for.body.4.endif, label %for.body.5.endif

for.body.5.endif:                                 ; preds = %for.body.5.if, %for.body.4.if
  switch i64 %.1065, label %for.body.5.endif.endif.endif [
    i64 -1, label %lookup.end.3.if.thread
    i64 -2, label %for.body.5.endif.endif.if
  ]

for.body.5.endif.endif.if:                        ; preds = %for.body.5.endif
  br label %for.body.5.endif.endif.endif

for.body.5.endif.endif.endif:                     ; preds = %for.body.5.endif, %for.body.5.endif.endif.if
  %.1056.3 = phi i64 [ -1, %for.body.5.endif ], [ %.1052, %for.body.5.endif.endif.if ]
  %.1107 = add nuw i64 %.1052, 1
  %.1108 = and i64 %.1107, %.1048
  %.1064.1 = getelementptr { i64, { i64, i32, i8 } }, { i64, { i64, i32, i8 } }* %.1019, i64 %.1108, i32 0
  %.1065.1 = load i64, i64* %.1064.1, align 8
  %.1066.1 = icmp eq i64 %.1028, %.1065.1
  br i1 %.1066.1, label %for.body.5.if.1, label %for.body.5.endif.1

lookup.body.3.if:                                 ; preds = %lookup.body.3
  %.1119 = getelementptr { i64, { i64, i32, i8 } }, { i64, { i64, i32, i8 } }* %.1019, i64 %.1053.0, i32 1
  %.1120 = load { i64, i32, i8 }, { i64, i32, i8 }* %.1119, align 8
  %.1121 = extractvalue { i64, i32, i8 } %.1120, 0
  %.1122 = extractvalue { i64, i32, i8 } %.1120, 1
  %.1123 = extractvalue { i64, i32, i8 } %.1120, 2
  %.1126 = icmp eq i8 %.1123, 0
  %.1135 = icmp eq i64 %.1033, %.1121
  %.1139 = icmp eq i32 %.1034, %.1122
  %.1140 = and i1 %.1135, %.1139
  %.1143 = xor i1 %.1038, %.1126
  %.1144 = and i1 %.1140, %.1143
  br i1 %.1144, label %for.body.4.endif, label %lookup.body.3.endif

lookup.body.3.endif:                              ; preds = %lookup.body.3.if, %lookup.body.3
  switch i64 %.1116, label %lookup.body.3.endif.endif.endif [
    i64 -1, label %lookup.end.3.if
    i64 -2, label %lookup.body.3.endif.endif.if
  ]

lookup.body.3.endif.endif.if:                     ; preds = %lookup.body.3.endif
  %.1154 = icmp eq i64 %.1056.0, -1
  %.1155 = select i1 %.1154, i64 %.1053.0, i64 %.1056.0
  br label %lookup.body.3.endif.endif.endif

lookup.body.3.endif.endif.endif:                  ; preds = %lookup.body.3.endif, %lookup.body.3.endif.endif.if
  %.1056.4 = phi i64 [ %.1056.0, %lookup.body.3.endif ], [ %.1155, %lookup.body.3.endif.endif.if ]
  %.1159 = lshr i64 %.1049.0, 5
  %.1160 = mul i64 %.1053.0, 5
  %.1161 = add nuw nsw i64 %.1159, 1
  %.1162 = add i64 %.1161, %.1160
  br label %lookup.body.3

lookup.end.3.if:                                  ; preds = %lookup.body.3.endif, %for.body.5.endif.1, %for.body.5.endif.2
  %.1053.1 = phi i64 [ %.1108, %for.body.5.endif.1 ], [ %.1108.1, %for.body.5.endif.2 ], [ %.1053.0, %lookup.body.3.endif ]
  %.1056.1 = phi i64 [ %.1056.3, %for.body.5.endif.1 ], [ %.1056.3.1, %for.body.5.endif.2 ], [ %.1056.0, %lookup.body.3.endif ]
  %.1169 = icmp eq i64 %.1056.1, -1
  br i1 %.1169, label %lookup.end.3.if.thread, label %37

lookup.end.3.if.thread:                           ; preds = %for.body.5.endif, %lookup.end.3.if
  %.1053.1374 = phi i64 [ %.1053.1, %lookup.end.3.if ], [ %.1052, %for.body.5.endif ]
  br label %37

37:                                               ; preds = %lookup.end.3.if, %lookup.end.3.if.thread
  %38 = phi i64 [ %.1053.1374, %lookup.end.3.if.thread ], [ %.1056.1, %lookup.end.3.if ]
  %.1178 = getelementptr { i64, { i64, i32, i8 } }, { i64, { i64, i32, i8 } }* %.1019, i64 %38, i32 0
  %.1179 = load i64, i64* %.1178, align 8
  store i64 %.1028, i64* %.1178, align 8
  %.1182 = getelementptr { i64, { i64, i32, i8 } }, { i64, { i64, i32, i8 } }* %.1019, i64 %38, i32 1
  %.1183 = zext i1 %.1038 to i8
  %.1186 = insertvalue { i64, i32, i8 } %.1032, i8 %.1183, 2
  store { i64, i32, i8 } %.1186, { i64, i32, i8 }* %.1182, align 8
  %.1189 = load i64, i64* %.1188, align 8
  %.1190 = add i64 %.1189, 1
  store i64 %.1190, i64* %.1188, align 8
  %.1193 = icmp eq i64 %.1179, -1
  br i1 %.1193, label %lookup.end.3.if.if, label %for.body.4.endif, !prof !24

lookup.end.3.if.if:                               ; preds = %37
  %.1196 = load i64, i64* %.1195, align 8
  %.1197 = add i64 %.1196, 1
  store i64 %.1197, i64* %.1195, align 8
  br label %for.body.4.endif

lookup.end.2.endif.endif:                         ; preds = %lookup.end.2.endif, %lookup.end.2.endif
  %.31.i.i35 = load i64, i64* %.16.i.i31, align 8, !noalias !29
  call void @llvm.lifetime.end.p0i8(i64 8, i8* nonnull %22) #6, !noalias !25
  call void @llvm.lifetime.end.p0i8(i64 8, i8* nonnull %23) #6, !noalias !25
  %.1248 = icmp ult i64 %.31.i.i35, -2
  %spec.select245 = select i1 %.1248, i64 %.31.i.i35, i64 -43
  %.1250 = getelementptr inbounds { i64, i64, i64, i64, i8, { i64, { i64, i32, i8 } } }, { i64, i64, i64, i64, i8, { i64, { i64, i32, i8 } } }* %.6.i44158, i64 0, i32 2
  %.1251 = load i64, i64* %.1250, align 8
  %.1255 = and i64 %.1251, %spec.select245
  %.1264 = getelementptr { i64, { i64, i32, i8 } }, { i64, { i64, i32, i8 } }* %.1222, i64 %.1255, i32 0
  %.1265 = load i64, i64* %.1264, align 8
  %.1266 = icmp eq i64 %spec.select245, %.1265
  br i1 %.1266, label %for.body.6.if, label %for.body.6.endif

lookup.body.4:                                    ; preds = %for.body.6.endif.endif.2, %lookup.body.4.endif.endif
  %.1252.0 = phi i64 [ %.1345, %lookup.body.4.endif.endif ], [ %spec.select245, %for.body.6.endif.endif.2 ]
  %.1348.pn = phi i64 [ %.1348, %lookup.body.4.endif.endif ], [ %.1300.2, %for.body.6.endif.endif.2 ]
  %.1256.0 = and i64 %.1348.pn, %.1251
  %.1308 = getelementptr { i64, { i64, i32, i8 } }, { i64, { i64, i32, i8 } }* %.1222, i64 %.1256.0, i32 0
  %.1309 = load i64, i64* %.1308, align 8
  %.1310 = icmp eq i64 %spec.select245, %.1309
  br i1 %.1310, label %lookup.body.4.if, label %lookup.body.4.endif

for.body.6.if:                                    ; preds = %lookup.end.2.endif.endif
  %.1268 = getelementptr { i64, { i64, i32, i8 } }, { i64, { i64, i32, i8 } }* %.1222, i64 %.1255, i32 1
  %.1269 = load { i64, i32, i8 }, { i64, i32, i8 }* %.1268, align 8
  %.1270 = extractvalue { i64, i32, i8 } %.1269, 0
  %.1271 = extractvalue { i64, i32, i8 } %.1269, 1
  %.1272 = extractvalue { i64, i32, i8 } %.1269, 2
  %.1275 = icmp eq i8 %.1272, 0
  %.1284 = icmp eq i64 %.1270, %arg.v.0
  %.1288 = icmp eq i32 %.1271, %arg.v.1
  %.1289 = and i1 %.1284, %.1288
  %.1292 = xor i1 %.34, %.1275
  %.1293 = and i1 %.1289, %.1292
  br i1 %.1293, label %lookup.end.4.if, label %for.body.6.endif

for.body.6.endif:                                 ; preds = %for.body.6.if, %lookup.end.2.endif.endif
  %.1297 = icmp eq i64 %.1265, -1
  br i1 %.1297, label %lookup.end.4.endif, label %for.body.6.endif.endif

for.body.6.endif.endif:                           ; preds = %for.body.6.endif
  %.1300 = add i64 %.1255, 1
  %.1301 = and i64 %.1300, %.1251
  %.1264.1 = getelementptr { i64, { i64, i32, i8 } }, { i64, { i64, i32, i8 } }* %.1222, i64 %.1301, i32 0
  %.1265.1 = load i64, i64* %.1264.1, align 8
  %.1266.1 = icmp eq i64 %spec.select245, %.1265.1
  br i1 %.1266.1, label %for.body.6.if.1, label %for.body.6.endif.1

lookup.body.4.if:                                 ; preds = %lookup.body.4
  %.1312 = getelementptr { i64, { i64, i32, i8 } }, { i64, { i64, i32, i8 } }* %.1222, i64 %.1256.0, i32 1
  %.1313 = load { i64, i32, i8 }, { i64, i32, i8 }* %.1312, align 8
  %.1314 = extractvalue { i64, i32, i8 } %.1313, 0
  %.1315 = extractvalue { i64, i32, i8 } %.1313, 1
  %.1316 = extractvalue { i64, i32, i8 } %.1313, 2
  %.1319 = icmp eq i8 %.1316, 0
  %.1328 = icmp eq i64 %.1314, %arg.v.0
  %.1332 = icmp eq i32 %.1315, %arg.v.1
  %.1333 = and i1 %.1328, %.1332
  %.1336 = xor i1 %.34, %.1319
  %.1337 = and i1 %.1333, %.1336
  br i1 %.1337, label %lookup.end.4.if, label %lookup.body.4.endif

lookup.body.4.endif:                              ; preds = %lookup.body.4.if, %lookup.body.4
  %.1341 = icmp eq i64 %.1309, -1
  br i1 %.1341, label %lookup.end.4.endif, label %lookup.body.4.endif.endif

lookup.body.4.endif.endif:                        ; preds = %lookup.body.4.endif
  %.1345 = lshr i64 %.1252.0, 5
  %.1346 = mul i64 %.1256.0, 5
  %.1347 = add nuw nsw i64 %.1345, 1
  %.1348 = add i64 %.1347, %.1346
  br label %lookup.body.4

lookup.end.4.if:                                  ; preds = %lookup.body.4.if, %for.body.6.if, %for.body.6.if.1, %for.body.6.if.2
  %.1256.1.ph = phi i64 [ %.1255, %for.body.6.if ], [ %.1301, %for.body.6.if.1 ], [ %.1301.1, %for.body.6.if.2 ], [ %.1256.0, %lookup.body.4.if ]
  %.1358 = getelementptr { i64, { i64, i32, i8 } }, { i64, { i64, i32, i8 } }* %.1222, i64 %.1256.1.ph, i32 0
  store i64 -2, i64* %.1358, align 8
  %.1376 = getelementptr inbounds { i64, i64, i64, i64, i8, { i64, { i64, i32, i8 } } }, { i64, i64, i64, i64, i8, { i64, { i64, i32, i8 } } }* %.6.i44158, i64 0, i32 1
  %.1377 = load i64, i64* %.1376, align 8
  %.1378 = add i64 %.1377, -1
  store i64 %.1378, i64* %.1376, align 8
  %.6.i12 = load i8*, i8** %8, align 8
  %.1385 = getelementptr inbounds i8, i8* %.6.i12, i64 40
  %39 = bitcast i8* %.1385 to { i64, { i64, i32, i8 } }*
  %.1386 = shl i64 %.1378, 1
  %40 = icmp ugt i64 %.1386, 16
  %.1388 = select i1 %40, i64 %.1386, i64 16
  %.1389 = shl i64 %.1388, 2
  %.1390 = getelementptr inbounds i8, i8* %.6.i12, i64 16
  %41 = bitcast i8* %.1390 to i64*
  %.1391 = load i64, i64* %41, align 8
  %.1392 = add i64 %.1391, 1
  %.1393 = icmp ule i64 %.1389, %.1392
  %.1394 = icmp ugt i64 %.1392, 16
  %.1395 = and i1 %.1394, %.1393
  br i1 %.1395, label %calcsize.body.3, label %lookup.end.4.endif, !prof !2

lookup.end.4.endif:                               ; preds = %lookup.body.4.endif, %for.body.6.endif, %for.body.6.endif.1, %for.body.6.endif.2, %lookup.end.4.if, %for.end.7
  tail call void @NRT_decref(i8* nonnull %.78)
  %.716 = icmp ugt i64 %.663.0296, 1
  br i1 %.716, label %B18.if, label %B44

calcsize.body.3:                                  ; preds = %lookup.end.4.if, %calcsize.body.3
  %.1397.0 = phi i64 [ %.1402, %calcsize.body.3 ], [ %.1392, %lookup.end.4.if ]
  %.1402 = lshr i64 %.1397.0, 1
  %.1403 = icmp ugt i64 %.1388, %.1402
  br i1 %.1403, label %calcsize.body.3.if, label %calcsize.body.3

calcsize.body.3.if:                               ; preds = %calcsize.body.3
  %.1412 = tail call { i64, i1 } @llvm.smul.with.overflow.i64(i64 %.1397.0, i64 24)
  %.1413 = extractvalue { i64, i1 } %.1412, 0
  %.1414 = extractvalue { i64, i1 } %.1412, 1
  %.1415 = tail call { i64, i1 } @llvm.sadd.with.overflow.i64(i64 %.1413, i64 40)
  %.1416 = extractvalue { i64, i1 } %.1415, 0
  %.1417 = extractvalue { i64, i1 } %.1415, 1
  %.1418 = or i1 %.1414, %.1417
  br i1 %.1418, label %calcsize.end.3.endif.endif.if, label %calcsize.end.3.endif.if, !prof !2

calcsize.end.3.endif.if:                          ; preds = %calcsize.body.3.if
  %.1426 = tail call i8* @NRT_MemInfo_varsize_alloc(i8* nonnull %.78, i64 %.1416)
  %.1427 = icmp eq i8* %.1426, null
  br i1 %.1427, label %calcsize.end.3.endif.endif.if, label %calcsize.end.3.endif.endif.endif, !prof !2

calcsize.end.3.endif.endif.if:                    ; preds = %calcsize.body.3.if, %calcsize.end.3.endif.if
  store { i8*, i32, i8* }* @.const.picklebuf.547594481152, { i8*, i32, i8* }** %excinfo, align 8
  ret i32 1, !ret_is_raise !15

calcsize.end.3.endif.endif.endif:                 ; preds = %calcsize.end.3.endif.if
  %.6.i10 = load i8*, i8** %8, align 8
  tail call void @llvm.memset.p0i8.i64(i8* align 1 %.6.i10, i8 -1, i64 %.1416, i1 false)
  %.1441 = getelementptr inbounds i8, i8* %.6.i10, i64 24
  %42 = bitcast i8* %.1441 to i64*
  store i64 0, i64* %42, align 8
  %.1443 = add nsw i64 %.1397.0, -1
  %.1444 = getelementptr inbounds i8, i8* %.6.i10, i64 16
  %43 = bitcast i8* %.1444 to i64*
  call void @llvm.memset.p0i8.i64(i8* nonnull align 8 dereferenceable(16) %.6.i10, i8 0, i64 16, i1 false)
  store i64 %.1443, i64* %43, align 8
  %.6.i8160 = load { i64, i64, i64, i64, i8, { i64, { i64, i32, i8 } } }*, { i64, i64, i64, i64, i8, { i64, { i64, i32, i8 } } }** %14, align 8
  %.1460 = getelementptr inbounds { i64, i64, i64, i64, i8, { i64, { i64, i32, i8 } } }, { i64, i64, i64, i64, i8, { i64, { i64, i32, i8 } } }* %.6.i8160, i64 0, i32 5
  %.1462 = load i64, i64* %41, align 8
  %.1463 = add i64 %.1462, 1
  %.1465105 = icmp sgt i64 %.1463, 0
  br i1 %.1465105, label %for.body.7.lr.ph, label %for.end.7

for.body.7.lr.ph:                                 ; preds = %calcsize.end.3.endif.endif.endif
  %.1488 = getelementptr inbounds { i64, i64, i64, i64, i8, { i64, { i64, i32, i8 } } }, { i64, i64, i64, i64, i8, { i64, { i64, i32, i8 } } }* %.6.i8160, i64 0, i32 2
  %.1629 = getelementptr inbounds { i64, i64, i64, i64, i8, { i64, { i64, i32, i8 } } }, { i64, i64, i64, i64, i8, { i64, { i64, i32, i8 } } }* %.6.i8160, i64 0, i32 1
  %.1636 = getelementptr inbounds { i64, i64, i64, i64, i8, { i64, { i64, i32, i8 } } }, { i64, i64, i64, i64, i8, { i64, { i64, i32, i8 } } }* %.6.i8160, i64 0, i32 0
  br label %for.body.7

for.body.7:                                       ; preds = %for.body.7.endif, %for.body.7.lr.ph
  %loop.index.7106 = phi i64 [ 0, %for.body.7.lr.ph ], [ %.1644, %for.body.7.endif ]
  %.1468 = getelementptr { i64, { i64, i32, i8 } }, { i64, { i64, i32, i8 } }* %39, i64 %loop.index.7106, i32 0
  %.1469 = load i64, i64* %.1468, align 8
  %.1470 = icmp ult i64 %.1469, -2
  br i1 %.1470, label %for.body.7.if, label %for.body.7.endif

for.end.7:                                        ; preds = %for.body.7.endif, %calcsize.end.3.endif.endif.endif
  tail call void @NRT_MemInfo_varsize_free(i8* nonnull %.78, i8* %.6.i12)
  br label %lookup.end.4.endif

for.body.7.if:                                    ; preds = %for.body.7
  %.1472 = getelementptr { i64, { i64, i32, i8 } }, { i64, { i64, i32, i8 } }* %39, i64 %loop.index.7106, i32 1
  %.1473 = load { i64, i32, i8 }, { i64, i32, i8 }* %.1472, align 8
  %.1474 = extractvalue { i64, i32, i8 } %.1473, 0
  %.1475 = extractvalue { i64, i32, i8 } %.1473, 1
  %.1476 = extractvalue { i64, i32, i8 } %.1473, 2
  %.1479 = icmp ne i8 %.1476, 0
  %.1489 = load i64, i64* %.1488, align 8
  %.1493 = and i64 %.1489, %.1469
  %.1505 = getelementptr { i64, { i64, i32, i8 } }, { i64, { i64, i32, i8 } }* %.1460, i64 %.1493, i32 0
  %.1506 = load i64, i64* %.1505, align 8
  %.1507 = icmp eq i64 %.1469, %.1506
  br i1 %.1507, label %for.body.8.if, label %for.body.8.endif

for.body.7.endif:                                 ; preds = %lookup.body.5.if, %for.body.8.if, %for.body.8.if.1, %for.body.8.if.2, %44, %lookup.end.5.if.if, %for.body.7
  %.1644 = add nuw nsw i64 %loop.index.7106, 1
  %exitcond353.not = icmp eq i64 %loop.index.7106, %.1462
  br i1 %exitcond353.not, label %for.end.7, label %for.body.7

lookup.body.5:                                    ; preds = %for.body.8.endif.endif.endif.2, %lookup.body.5.endif.endif.endif
  %.1490.0 = phi i64 [ %.1600, %lookup.body.5.endif.endif.endif ], [ %.1469, %for.body.8.endif.endif.endif.2 ]
  %.1603.pn = phi i64 [ %.1603, %lookup.body.5.endif.endif.endif ], [ %.1548.2, %for.body.8.endif.endif.endif.2 ]
  %.1497.0 = phi i64 [ %.1497.4, %lookup.body.5.endif.endif.endif ], [ %.1497.3.2, %for.body.8.endif.endif.endif.2 ]
  %.1494.0 = and i64 %.1603.pn, %.1489
  %.1556 = getelementptr { i64, { i64, i32, i8 } }, { i64, { i64, i32, i8 } }* %.1460, i64 %.1494.0, i32 0
  %.1557 = load i64, i64* %.1556, align 8
  %.1558 = icmp eq i64 %.1469, %.1557
  br i1 %.1558, label %lookup.body.5.if, label %lookup.body.5.endif

for.body.8.if:                                    ; preds = %for.body.7.if
  %.1509 = getelementptr { i64, { i64, i32, i8 } }, { i64, { i64, i32, i8 } }* %.1460, i64 %.1493, i32 1
  %.1510 = load { i64, i32, i8 }, { i64, i32, i8 }* %.1509, align 8
  %.1511 = extractvalue { i64, i32, i8 } %.1510, 0
  %.1512 = extractvalue { i64, i32, i8 } %.1510, 1
  %.1513 = extractvalue { i64, i32, i8 } %.1510, 2
  %.1516 = icmp eq i8 %.1513, 0
  %.1525 = icmp eq i64 %.1474, %.1511
  %.1529 = icmp eq i32 %.1475, %.1512
  %.1530 = and i1 %.1525, %.1529
  %.1533 = xor i1 %.1479, %.1516
  %.1534 = and i1 %.1530, %.1533
  br i1 %.1534, label %for.body.7.endif, label %for.body.8.endif

for.body.8.endif:                                 ; preds = %for.body.8.if, %for.body.7.if
  switch i64 %.1506, label %for.body.8.endif.endif.endif [
    i64 -1, label %lookup.end.5.if.thread
    i64 -2, label %for.body.8.endif.endif.if
  ]

for.body.8.endif.endif.if:                        ; preds = %for.body.8.endif
  br label %for.body.8.endif.endif.endif

for.body.8.endif.endif.endif:                     ; preds = %for.body.8.endif, %for.body.8.endif.endif.if
  %.1497.3 = phi i64 [ -1, %for.body.8.endif ], [ %.1493, %for.body.8.endif.endif.if ]
  %.1548 = add nuw i64 %.1493, 1
  %.1549 = and i64 %.1548, %.1489
  %.1505.1 = getelementptr { i64, { i64, i32, i8 } }, { i64, { i64, i32, i8 } }* %.1460, i64 %.1549, i32 0
  %.1506.1 = load i64, i64* %.1505.1, align 8
  %.1507.1 = icmp eq i64 %.1469, %.1506.1
  br i1 %.1507.1, label %for.body.8.if.1, label %for.body.8.endif.1

lookup.body.5.if:                                 ; preds = %lookup.body.5
  %.1560 = getelementptr { i64, { i64, i32, i8 } }, { i64, { i64, i32, i8 } }* %.1460, i64 %.1494.0, i32 1
  %.1561 = load { i64, i32, i8 }, { i64, i32, i8 }* %.1560, align 8
  %.1562 = extractvalue { i64, i32, i8 } %.1561, 0
  %.1563 = extractvalue { i64, i32, i8 } %.1561, 1
  %.1564 = extractvalue { i64, i32, i8 } %.1561, 2
  %.1567 = icmp eq i8 %.1564, 0
  %.1576 = icmp eq i64 %.1474, %.1562
  %.1580 = icmp eq i32 %.1475, %.1563
  %.1581 = and i1 %.1576, %.1580
  %.1584 = xor i1 %.1479, %.1567
  %.1585 = and i1 %.1581, %.1584
  br i1 %.1585, label %for.body.7.endif, label %lookup.body.5.endif

lookup.body.5.endif:                              ; preds = %lookup.body.5.if, %lookup.body.5
  switch i64 %.1557, label %lookup.body.5.endif.endif.endif [
    i64 -1, label %lookup.end.5.if
    i64 -2, label %lookup.body.5.endif.endif.if
  ]

lookup.body.5.endif.endif.if:                     ; preds = %lookup.body.5.endif
  %.1595 = icmp eq i64 %.1497.0, -1
  %.1596 = select i1 %.1595, i64 %.1494.0, i64 %.1497.0
  br label %lookup.body.5.endif.endif.endif

lookup.body.5.endif.endif.endif:                  ; preds = %lookup.body.5.endif, %lookup.body.5.endif.endif.if
  %.1497.4 = phi i64 [ %.1497.0, %lookup.body.5.endif ], [ %.1596, %lookup.body.5.endif.endif.if ]
  %.1600 = lshr i64 %.1490.0, 5
  %.1601 = mul i64 %.1494.0, 5
  %.1602 = add nuw nsw i64 %.1600, 1
  %.1603 = add i64 %.1602, %.1601
  br label %lookup.body.5

lookup.end.5.if:                                  ; preds = %lookup.body.5.endif, %for.body.8.endif.1, %for.body.8.endif.2
  %.1494.1 = phi i64 [ %.1549, %for.body.8.endif.1 ], [ %.1549.1, %for.body.8.endif.2 ], [ %.1494.0, %lookup.body.5.endif ]
  %.1497.1 = phi i64 [ %.1497.3, %for.body.8.endif.1 ], [ %.1497.3.1, %for.body.8.endif.2 ], [ %.1497.0, %lookup.body.5.endif ]
  %.1610 = icmp eq i64 %.1497.1, -1
  br i1 %.1610, label %lookup.end.5.if.thread, label %44

lookup.end.5.if.thread:                           ; preds = %for.body.8.endif, %lookup.end.5.if
  %.1494.1378 = phi i64 [ %.1494.1, %lookup.end.5.if ], [ %.1493, %for.body.8.endif ]
  br label %44

44:                                               ; preds = %lookup.end.5.if, %lookup.end.5.if.thread
  %45 = phi i64 [ %.1494.1378, %lookup.end.5.if.thread ], [ %.1497.1, %lookup.end.5.if ]
  %.1619 = getelementptr { i64, { i64, i32, i8 } }, { i64, { i64, i32, i8 } }* %.1460, i64 %45, i32 0
  %.1620 = load i64, i64* %.1619, align 8
  store i64 %.1469, i64* %.1619, align 8
  %.1623 = getelementptr { i64, { i64, i32, i8 } }, { i64, { i64, i32, i8 } }* %.1460, i64 %45, i32 1
  %.1624 = zext i1 %.1479 to i8
  %.1627 = insertvalue { i64, i32, i8 } %.1473, i8 %.1624, 2
  store { i64, i32, i8 } %.1627, { i64, i32, i8 }* %.1623, align 8
  %.1630 = load i64, i64* %.1629, align 8
  %.1631 = add i64 %.1630, 1
  store i64 %.1631, i64* %.1629, align 8
  %.1634 = icmp eq i64 %.1620, -1
  br i1 %.1634, label %lookup.end.5.if.if, label %for.body.7.endif, !prof !24

lookup.end.5.if.if:                               ; preds = %44
  %.1637 = load i64, i64* %.1636, align 8
  %.1638 = add i64 %.1637, 1
  store i64 %.1638, i64* %.1636, align 8
  br label %for.body.7.endif

for.body.3.if.1:                                  ; preds = %for.body.3.endif.endif.endif
  %.814.1 = getelementptr { i64, { i64, i32, i8 } }, { i64, { i64, i32, i8 } }* %.765, i64 %.854, i32 1
  %.815.1 = load { i64, i32, i8 }, { i64, i32, i8 }* %.814.1, align 8
  %.816.1 = extractvalue { i64, i32, i8 } %.815.1, 0
  %.817.1 = extractvalue { i64, i32, i8 } %.815.1, 1
  %.818.1 = extractvalue { i64, i32, i8 } %.815.1, 2
  %.821.1 = icmp eq i8 %.818.1, 0
  %.830.1 = icmp eq i64 %.816.1, %arg.u.0
  %.834.1 = icmp eq i32 %.817.1, %arg.u.1
  %.835.1 = and i1 %.830.1, %.834.1
  %.838.1 = xor i1 %.25, %.821.1
  %.839.1 = and i1 %.835.1, %.838.1
  br i1 %.839.1, label %lookup.end.2.endif, label %for.body.3.endif.1

for.body.3.endif.1:                               ; preds = %for.body.3.if.1, %for.body.3.endif.endif.endif
  switch i64 %.811.1, label %for.body.3.endif.endif.endif.1 [
    i64 -1, label %lookup.end.2.if
    i64 -2, label %for.body.3.endif.endif.if.1
  ]

for.body.3.endif.endif.if.1:                      ; preds = %for.body.3.endif.1
  %.849.1 = icmp eq i64 %.802.3, -1
  %.850.1 = select i1 %.849.1, i64 %.854, i64 %.802.3
  br label %for.body.3.endif.endif.endif.1

for.body.3.endif.endif.endif.1:                   ; preds = %for.body.3.endif.endif.if.1, %for.body.3.endif.1
  %.802.3.1 = phi i64 [ %.802.3, %for.body.3.endif.1 ], [ %.850.1, %for.body.3.endif.endif.if.1 ]
  %.853.1 = add i64 %.854, 1
  %.854.1 = and i64 %.853.1, %.794
  %.810.2 = getelementptr { i64, { i64, i32, i8 } }, { i64, { i64, i32, i8 } }* %.765, i64 %.854.1, i32 0
  %.811.2 = load i64, i64* %.810.2, align 8
  %.812.2 = icmp eq i64 %spec.select244, %.811.2
  br i1 %.812.2, label %for.body.3.if.2, label %for.body.3.endif.2

for.body.3.if.2:                                  ; preds = %for.body.3.endif.endif.endif.1
  %.814.2 = getelementptr { i64, { i64, i32, i8 } }, { i64, { i64, i32, i8 } }* %.765, i64 %.854.1, i32 1
  %.815.2 = load { i64, i32, i8 }, { i64, i32, i8 }* %.814.2, align 8
  %.816.2 = extractvalue { i64, i32, i8 } %.815.2, 0
  %.817.2 = extractvalue { i64, i32, i8 } %.815.2, 1
  %.818.2 = extractvalue { i64, i32, i8 } %.815.2, 2
  %.821.2 = icmp eq i8 %.818.2, 0
  %.830.2 = icmp eq i64 %.816.2, %arg.u.0
  %.834.2 = icmp eq i32 %.817.2, %arg.u.1
  %.835.2 = and i1 %.830.2, %.834.2
  %.838.2 = xor i1 %.25, %.821.2
  %.839.2 = and i1 %.835.2, %.838.2
  br i1 %.839.2, label %lookup.end.2.endif, label %for.body.3.endif.2

for.body.3.endif.2:                               ; preds = %for.body.3.if.2, %for.body.3.endif.endif.endif.1
  switch i64 %.811.2, label %for.body.3.endif.endif.endif.2 [
    i64 -1, label %lookup.end.2.if
    i64 -2, label %for.body.3.endif.endif.if.2
  ]

for.body.3.endif.endif.if.2:                      ; preds = %for.body.3.endif.2
  %.849.2 = icmp eq i64 %.802.3.1, -1
  %.850.2 = select i1 %.849.2, i64 %.854.1, i64 %.802.3.1
  br label %for.body.3.endif.endif.endif.2

for.body.3.endif.endif.endif.2:                   ; preds = %for.body.3.endif.endif.if.2, %for.body.3.endif.2
  %.802.3.2 = phi i64 [ %.802.3.1, %for.body.3.endif.2 ], [ %.850.2, %for.body.3.endif.endif.if.2 ]
  %.853.2 = add i64 %.854.1, 1
  br label %lookup.body.2

for.body.5.if.1:                                  ; preds = %for.body.5.endif.endif.endif
  %.1068.1 = getelementptr { i64, { i64, i32, i8 } }, { i64, { i64, i32, i8 } }* %.1019, i64 %.1108, i32 1
  %.1069.1 = load { i64, i32, i8 }, { i64, i32, i8 }* %.1068.1, align 8
  %.1070.1 = extractvalue { i64, i32, i8 } %.1069.1, 0
  %.1071.1 = extractvalue { i64, i32, i8 } %.1069.1, 1
  %.1072.1 = extractvalue { i64, i32, i8 } %.1069.1, 2
  %.1075.1 = icmp eq i8 %.1072.1, 0
  %.1084.1 = icmp eq i64 %.1033, %.1070.1
  %.1088.1 = icmp eq i32 %.1034, %.1071.1
  %.1089.1 = and i1 %.1084.1, %.1088.1
  %.1092.1 = xor i1 %.1038, %.1075.1
  %.1093.1 = and i1 %.1089.1, %.1092.1
  br i1 %.1093.1, label %for.body.4.endif, label %for.body.5.endif.1

for.body.5.endif.1:                               ; preds = %for.body.5.if.1, %for.body.5.endif.endif.endif
  switch i64 %.1065.1, label %for.body.5.endif.endif.endif.1 [
    i64 -1, label %lookup.end.3.if
    i64 -2, label %for.body.5.endif.endif.if.1
  ]

for.body.5.endif.endif.if.1:                      ; preds = %for.body.5.endif.1
  %.1103.1 = icmp eq i64 %.1056.3, -1
  %.1104.1 = select i1 %.1103.1, i64 %.1108, i64 %.1056.3
  br label %for.body.5.endif.endif.endif.1

for.body.5.endif.endif.endif.1:                   ; preds = %for.body.5.endif.endif.if.1, %for.body.5.endif.1
  %.1056.3.1 = phi i64 [ %.1056.3, %for.body.5.endif.1 ], [ %.1104.1, %for.body.5.endif.endif.if.1 ]
  %.1107.1 = add nuw i64 %.1108, 1
  %.1108.1 = and i64 %.1107.1, %.1048
  %.1064.2 = getelementptr { i64, { i64, i32, i8 } }, { i64, { i64, i32, i8 } }* %.1019, i64 %.1108.1, i32 0
  %.1065.2 = load i64, i64* %.1064.2, align 8
  %.1066.2 = icmp eq i64 %.1028, %.1065.2
  br i1 %.1066.2, label %for.body.5.if.2, label %for.body.5.endif.2

for.body.5.if.2:                                  ; preds = %for.body.5.endif.endif.endif.1
  %.1068.2 = getelementptr { i64, { i64, i32, i8 } }, { i64, { i64, i32, i8 } }* %.1019, i64 %.1108.1, i32 1
  %.1069.2 = load { i64, i32, i8 }, { i64, i32, i8 }* %.1068.2, align 8
  %.1070.2 = extractvalue { i64, i32, i8 } %.1069.2, 0
  %.1071.2 = extractvalue { i64, i32, i8 } %.1069.2, 1
  %.1072.2 = extractvalue { i64, i32, i8 } %.1069.2, 2
  %.1075.2 = icmp eq i8 %.1072.2, 0
  %.1084.2 = icmp eq i64 %.1033, %.1070.2
  %.1088.2 = icmp eq i32 %.1034, %.1071.2
  %.1089.2 = and i1 %.1084.2, %.1088.2
  %.1092.2 = xor i1 %.1038, %.1075.2
  %.1093.2 = and i1 %.1089.2, %.1092.2
  br i1 %.1093.2, label %for.body.4.endif, label %for.body.5.endif.2

for.body.5.endif.2:                               ; preds = %for.body.5.if.2, %for.body.5.endif.endif.endif.1
  switch i64 %.1065.2, label %for.body.5.endif.endif.endif.2 [
    i64 -1, label %lookup.end.3.if
    i64 -2, label %for.body.5.endif.endif.if.2
  ]

for.body.5.endif.endif.if.2:                      ; preds = %for.body.5.endif.2
  %.1103.2 = icmp eq i64 %.1056.3.1, -1
  %.1104.2 = select i1 %.1103.2, i64 %.1108.1, i64 %.1056.3.1
  br label %for.body.5.endif.endif.endif.2

for.body.5.endif.endif.endif.2:                   ; preds = %for.body.5.endif.endif.if.2, %for.body.5.endif.2
  %.1056.3.2 = phi i64 [ %.1056.3.1, %for.body.5.endif.2 ], [ %.1104.2, %for.body.5.endif.endif.if.2 ]
  %.1107.2 = add i64 %.1108.1, 1
  br label %lookup.body.3

for.body.6.if.1:                                  ; preds = %for.body.6.endif.endif
  %.1268.1 = getelementptr { i64, { i64, i32, i8 } }, { i64, { i64, i32, i8 } }* %.1222, i64 %.1301, i32 1
  %.1269.1 = load { i64, i32, i8 }, { i64, i32, i8 }* %.1268.1, align 8
  %.1270.1 = extractvalue { i64, i32, i8 } %.1269.1, 0
  %.1271.1 = extractvalue { i64, i32, i8 } %.1269.1, 1
  %.1272.1 = extractvalue { i64, i32, i8 } %.1269.1, 2
  %.1275.1 = icmp eq i8 %.1272.1, 0
  %.1284.1 = icmp eq i64 %.1270.1, %arg.v.0
  %.1288.1 = icmp eq i32 %.1271.1, %arg.v.1
  %.1289.1 = and i1 %.1284.1, %.1288.1
  %.1292.1 = xor i1 %.34, %.1275.1
  %.1293.1 = and i1 %.1289.1, %.1292.1
  br i1 %.1293.1, label %lookup.end.4.if, label %for.body.6.endif.1

for.body.6.endif.1:                               ; preds = %for.body.6.if.1, %for.body.6.endif.endif
  %.1297.1 = icmp eq i64 %.1265.1, -1
  br i1 %.1297.1, label %lookup.end.4.endif, label %for.body.6.endif.endif.1

for.body.6.endif.endif.1:                         ; preds = %for.body.6.endif.1
  %.1300.1 = add i64 %.1301, 1
  %.1301.1 = and i64 %.1300.1, %.1251
  %.1264.2 = getelementptr { i64, { i64, i32, i8 } }, { i64, { i64, i32, i8 } }* %.1222, i64 %.1301.1, i32 0
  %.1265.2 = load i64, i64* %.1264.2, align 8
  %.1266.2 = icmp eq i64 %spec.select245, %.1265.2
  br i1 %.1266.2, label %for.body.6.if.2, label %for.body.6.endif.2

for.body.6.if.2:                                  ; preds = %for.body.6.endif.endif.1
  %.1268.2 = getelementptr { i64, { i64, i32, i8 } }, { i64, { i64, i32, i8 } }* %.1222, i64 %.1301.1, i32 1
  %.1269.2 = load { i64, i32, i8 }, { i64, i32, i8 }* %.1268.2, align 8
  %.1270.2 = extractvalue { i64, i32, i8 } %.1269.2, 0
  %.1271.2 = extractvalue { i64, i32, i8 } %.1269.2, 1
  %.1272.2 = extractvalue { i64, i32, i8 } %.1269.2, 2
  %.1275.2 = icmp eq i8 %.1272.2, 0
  %.1284.2 = icmp eq i64 %.1270.2, %arg.v.0
  %.1288.2 = icmp eq i32 %.1271.2, %arg.v.1
  %.1289.2 = and i1 %.1284.2, %.1288.2
  %.1292.2 = xor i1 %.34, %.1275.2
  %.1293.2 = and i1 %.1289.2, %.1292.2
  br i1 %.1293.2, label %lookup.end.4.if, label %for.body.6.endif.2

for.body.6.endif.2:                               ; preds = %for.body.6.if.2, %for.body.6.endif.endif.1
  %.1297.2 = icmp eq i64 %.1265.2, -1
  br i1 %.1297.2, label %lookup.end.4.endif, label %for.body.6.endif.endif.2

for.body.6.endif.endif.2:                         ; preds = %for.body.6.endif.2
  %.1300.2 = add i64 %.1301.1, 1
  br label %lookup.body.4

for.body.8.if.1:                                  ; preds = %for.body.8.endif.endif.endif
  %.1509.1 = getelementptr { i64, { i64, i32, i8 } }, { i64, { i64, i32, i8 } }* %.1460, i64 %.1549, i32 1
  %.1510.1 = load { i64, i32, i8 }, { i64, i32, i8 }* %.1509.1, align 8
  %.1511.1 = extractvalue { i64, i32, i8 } %.1510.1, 0
  %.1512.1 = extractvalue { i64, i32, i8 } %.1510.1, 1
  %.1513.1 = extractvalue { i64, i32, i8 } %.1510.1, 2
  %.1516.1 = icmp eq i8 %.1513.1, 0
  %.1525.1 = icmp eq i64 %.1474, %.1511.1
  %.1529.1 = icmp eq i32 %.1475, %.1512.1
  %.1530.1 = and i1 %.1525.1, %.1529.1
  %.1533.1 = xor i1 %.1479, %.1516.1
  %.1534.1 = and i1 %.1530.1, %.1533.1
  br i1 %.1534.1, label %for.body.7.endif, label %for.body.8.endif.1

for.body.8.endif.1:                               ; preds = %for.body.8.if.1, %for.body.8.endif.endif.endif
  switch i64 %.1506.1, label %for.body.8.endif.endif.endif.1 [
    i64 -1, label %lookup.end.5.if
    i64 -2, label %for.body.8.endif.endif.if.1
  ]

for.body.8.endif.endif.if.1:                      ; preds = %for.body.8.endif.1
  %.1544.1 = icmp eq i64 %.1497.3, -1
  %.1545.1 = select i1 %.1544.1, i64 %.1549, i64 %.1497.3
  br label %for.body.8.endif.endif.endif.1

for.body.8.endif.endif.endif.1:                   ; preds = %for.body.8.endif.endif.if.1, %for.body.8.endif.1
  %.1497.3.1 = phi i64 [ %.1497.3, %for.body.8.endif.1 ], [ %.1545.1, %for.body.8.endif.endif.if.1 ]
  %.1548.1 = add nuw i64 %.1549, 1
  %.1549.1 = and i64 %.1548.1, %.1489
  %.1505.2 = getelementptr { i64, { i64, i32, i8 } }, { i64, { i64, i32, i8 } }* %.1460, i64 %.1549.1, i32 0
  %.1506.2 = load i64, i64* %.1505.2, align 8
  %.1507.2 = icmp eq i64 %.1469, %.1506.2
  br i1 %.1507.2, label %for.body.8.if.2, label %for.body.8.endif.2

for.body.8.if.2:                                  ; preds = %for.body.8.endif.endif.endif.1
  %.1509.2 = getelementptr { i64, { i64, i32, i8 } }, { i64, { i64, i32, i8 } }* %.1460, i64 %.1549.1, i32 1
  %.1510.2 = load { i64, i32, i8 }, { i64, i32, i8 }* %.1509.2, align 8
  %.1511.2 = extractvalue { i64, i32, i8 } %.1510.2, 0
  %.1512.2 = extractvalue { i64, i32, i8 } %.1510.2, 1
  %.1513.2 = extractvalue { i64, i32, i8 } %.1510.2, 2
  %.1516.2 = icmp eq i8 %.1513.2, 0
  %.1525.2 = icmp eq i64 %.1474, %.1511.2
  %.1529.2 = icmp eq i32 %.1475, %.1512.2
  %.1530.2 = and i1 %.1525.2, %.1529.2
  %.1533.2 = xor i1 %.1479, %.1516.2
  %.1534.2 = and i1 %.1530.2, %.1533.2
  br i1 %.1534.2, label %for.body.7.endif, label %for.body.8.endif.2

for.body.8.endif.2:                               ; preds = %for.body.8.if.2, %for.body.8.endif.endif.endif.1
  switch i64 %.1506.2, label %for.body.8.endif.endif.endif.2 [
    i64 -1, label %lookup.end.5.if
    i64 -2, label %for.body.8.endif.endif.if.2
  ]

for.body.8.endif.endif.if.2:                      ; preds = %for.body.8.endif.2
  %.1544.2 = icmp eq i64 %.1497.3.1, -1
  %.1545.2 = select i1 %.1544.2, i64 %.1549.1, i64 %.1497.3.1
  br label %for.body.8.endif.endif.endif.2

for.body.8.endif.endif.endif.2:                   ; preds = %for.body.8.endif.endif.if.2, %for.body.8.endif.2
  %.1497.3.2 = phi i64 [ %.1497.3.1, %for.body.8.endif.2 ], [ %.1545.2, %for.body.8.endif.endif.if.2 ]
  %.1548.2 = add i64 %.1549.1, 1
  br label %lookup.body.5

for.body.if.1:                                    ; preds = %for.body.endif.endif.endif
  %.233.1 = getelementptr { i64, { i64, i32, i8 } }, { i64, { i64, i32, i8 } }* %.184, i64 %.273, i32 1
  %.234.1 = load { i64, i32, i8 }, { i64, i32, i8 }* %.233.1, align 8
  %.235.1 = extractvalue { i64, i32, i8 } %.234.1, 0
  %.236.1 = extractvalue { i64, i32, i8 } %.234.1, 1
  %.237.1 = extractvalue { i64, i32, i8 } %.234.1, 2
  %.240.1 = icmp eq i8 %.237.1, 0
  %.249.1 = icmp eq i64 %.235.1, %arg.a.0.0
  %.253.1 = icmp eq i32 %.236.1, %arg.a.0.1
  %.254.1 = and i1 %.249.1, %.253.1
  %.257.1 = xor i1 %.15, %.240.1
  %.258.1 = and i1 %.254.1, %.257.1
  br i1 %.258.1, label %lookup.end.endif, label %for.body.endif.1

for.body.endif.1:                                 ; preds = %for.body.if.1, %for.body.endif.endif.endif
  switch i64 %.230.1, label %for.body.endif.endif.endif.1 [
    i64 -1, label %lookup.end.if
    i64 -2, label %for.body.endif.endif.if.1
  ]

for.body.endif.endif.if.1:                        ; preds = %for.body.endif.1
  %.268.1 = icmp eq i64 %.221.3, -1
  %.269.1 = select i1 %.268.1, i64 %.273, i64 %.221.3
  br label %for.body.endif.endif.endif.1

for.body.endif.endif.endif.1:                     ; preds = %for.body.endif.endif.if.1, %for.body.endif.1
  %.221.3.1 = phi i64 [ %.221.3, %for.body.endif.1 ], [ %.269.1, %for.body.endif.endif.if.1 ]
  %.272.1 = add i64 %.273, 1
  %.273.1 = and i64 %.272.1, %.213
  %.229.2 = getelementptr { i64, { i64, i32, i8 } }, { i64, { i64, i32, i8 } }* %.184, i64 %.273.1, i32 0
  %.230.2 = load i64, i64* %.229.2, align 8
  %.231.2 = icmp eq i64 %spec.select, %.230.2
  br i1 %.231.2, label %for.body.if.2, label %for.body.endif.2

for.body.if.2:                                    ; preds = %for.body.endif.endif.endif.1
  %.233.2 = getelementptr { i64, { i64, i32, i8 } }, { i64, { i64, i32, i8 } }* %.184, i64 %.273.1, i32 1
  %.234.2 = load { i64, i32, i8 }, { i64, i32, i8 }* %.233.2, align 8
  %.235.2 = extractvalue { i64, i32, i8 } %.234.2, 0
  %.236.2 = extractvalue { i64, i32, i8 } %.234.2, 1
  %.237.2 = extractvalue { i64, i32, i8 } %.234.2, 2
  %.240.2 = icmp eq i8 %.237.2, 0
  %.249.2 = icmp eq i64 %.235.2, %arg.a.0.0
  %.253.2 = icmp eq i32 %.236.2, %arg.a.0.1
  %.254.2 = and i1 %.249.2, %.253.2
  %.257.2 = xor i1 %.15, %.240.2
  %.258.2 = and i1 %.254.2, %.257.2
  br i1 %.258.2, label %lookup.end.endif, label %for.body.endif.2

for.body.endif.2:                                 ; preds = %for.body.if.2, %for.body.endif.endif.endif.1
  switch i64 %.230.2, label %for.body.endif.endif.endif.2 [
    i64 -1, label %lookup.end.if
    i64 -2, label %for.body.endif.endif.if.2
  ]

for.body.endif.endif.if.2:                        ; preds = %for.body.endif.2
  %.268.2 = icmp eq i64 %.221.3.1, -1
  %.269.2 = select i1 %.268.2, i64 %.273.1, i64 %.221.3.1
  br label %for.body.endif.endif.endif.2

for.body.endif.endif.endif.2:                     ; preds = %for.body.endif.endif.if.2, %for.body.endif.2
  %.221.3.2 = phi i64 [ %.221.3.1, %for.body.endif.2 ], [ %.269.2, %for.body.endif.endif.if.2 ]
  %.272.2 = add i64 %.273.1, 1
  br label %lookup.body

for.body.2.if.1:                                  ; preds = %for.body.2.endif.endif.endif
  %.487.1 = getelementptr { i64, { i64, i32, i8 } }, { i64, { i64, i32, i8 } }* %.438, i64 %.527, i32 1
  %.488.1 = load { i64, i32, i8 }, { i64, i32, i8 }* %.487.1, align 8
  %.489.1 = extractvalue { i64, i32, i8 } %.488.1, 0
  %.490.1 = extractvalue { i64, i32, i8 } %.488.1, 1
  %.491.1 = extractvalue { i64, i32, i8 } %.488.1, 2
  %.494.1 = icmp eq i8 %.491.1, 0
  %.503.1 = icmp eq i64 %.452, %.489.1
  %.507.1 = icmp eq i32 %.453, %.490.1
  %.508.1 = and i1 %.503.1, %.507.1
  %.511.1 = xor i1 %.457, %.494.1
  %.512.1 = and i1 %.508.1, %.511.1
  br i1 %.512.1, label %for.body.1.endif, label %for.body.2.endif.1

for.body.2.endif.1:                               ; preds = %for.body.2.if.1, %for.body.2.endif.endif.endif
  switch i64 %.484.1, label %for.body.2.endif.endif.endif.1 [
    i64 -1, label %lookup.end.1.if
    i64 -2, label %for.body.2.endif.endif.if.1
  ]

for.body.2.endif.endif.if.1:                      ; preds = %for.body.2.endif.1
  %.522.1 = icmp eq i64 %.475.3, -1
  %.523.1 = select i1 %.522.1, i64 %.527, i64 %.475.3
  br label %for.body.2.endif.endif.endif.1

for.body.2.endif.endif.endif.1:                   ; preds = %for.body.2.endif.endif.if.1, %for.body.2.endif.1
  %.475.3.1 = phi i64 [ %.475.3, %for.body.2.endif.1 ], [ %.523.1, %for.body.2.endif.endif.if.1 ]
  %.526.1 = add nuw i64 %.527, 1
  %.527.1 = and i64 %.526.1, %.467
  %.483.2 = getelementptr { i64, { i64, i32, i8 } }, { i64, { i64, i32, i8 } }* %.438, i64 %.527.1, i32 0
  %.484.2 = load i64, i64* %.483.2, align 8
  %.485.2 = icmp eq i64 %.447, %.484.2
  br i1 %.485.2, label %for.body.2.if.2, label %for.body.2.endif.2

for.body.2.if.2:                                  ; preds = %for.body.2.endif.endif.endif.1
  %.487.2 = getelementptr { i64, { i64, i32, i8 } }, { i64, { i64, i32, i8 } }* %.438, i64 %.527.1, i32 1
  %.488.2 = load { i64, i32, i8 }, { i64, i32, i8 }* %.487.2, align 8
  %.489.2 = extractvalue { i64, i32, i8 } %.488.2, 0
  %.490.2 = extractvalue { i64, i32, i8 } %.488.2, 1
  %.491.2 = extractvalue { i64, i32, i8 } %.488.2, 2
  %.494.2 = icmp eq i8 %.491.2, 0
  %.503.2 = icmp eq i64 %.452, %.489.2
  %.507.2 = icmp eq i32 %.453, %.490.2
  %.508.2 = and i1 %.503.2, %.507.2
  %.511.2 = xor i1 %.457, %.494.2
  %.512.2 = and i1 %.508.2, %.511.2
  br i1 %.512.2, label %for.body.1.endif, label %for.body.2.endif.2

for.body.2.endif.2:                               ; preds = %for.body.2.if.2, %for.body.2.endif.endif.endif.1
  switch i64 %.484.2, label %for.body.2.endif.endif.endif.2 [
    i64 -1, label %lookup.end.1.if
    i64 -2, label %for.body.2.endif.endif.if.2
  ]

for.body.2.endif.endif.if.2:                      ; preds = %for.body.2.endif.2
  %.522.2 = icmp eq i64 %.475.3.1, -1
  %.523.2 = select i1 %.522.2, i64 %.527.1, i64 %.475.3.1
  br label %for.body.2.endif.endif.endif.2

for.body.2.endif.endif.endif.2:                   ; preds = %for.body.2.endif.endif.if.2, %for.body.2.endif.2
  %.475.3.2 = phi i64 [ %.475.3.1, %for.body.2.endif.2 ], [ %.523.2, %for.body.2.endif.endif.if.2 ]
  %.526.2 = add i64 %.527.1, 1
  br label %lookup.body.1
}

; Function Attrs: nounwind readnone speculatable willreturn
declare { i64, i1 } @llvm.smul.with.overflow.i64(i64, i64) #0

; Function Attrs: nounwind readnone speculatable willreturn
declare { i64, i1 } @llvm.sadd.with.overflow.i64(i64, i64) #0

define linkonce_odr void @".dtor.set.Tuple(int64, int32, bool)"(i8* %.1, i64 %.2, i8* %.3) {
.5:
  ret void
}

declare i8* @NRT_MemInfo_new_varsize_dtor(i64, i8*) local_unnamed_addr

; Function Attrs: argmemonly nounwind willreturn writeonly
declare void @llvm.memset.p0i8.i64(i8* nocapture writeonly, i8, i64, i1 immarg) #1

declare noalias i8* @NRT_MemInfo_varsize_alloc(i8*, i64) local_unnamed_addr

declare void @NRT_MemInfo_varsize_free(i8*, i8*) local_unnamed_addr

define i8* @_ZN7cpython5numba5tests9test_sets19add_discard_usecaseB2v1B38c8tJTIcFHzwl2ILiXkcBV0KBSgP9CGZpAgA_3dE8UniTupleI5TupleIxibELi1EE5TupleIxibE5TupleIxibE(i8* nocapture readnone %py_closure, i8* %py_args, i8* nocapture readnone %py_kws) local_unnamed_addr {
entry:
  %.5 = alloca i8*, align 8
  %.6 = alloca i8*, align 8
  %.7 = alloca i8*, align 8
  %.8 = call i32 (i8*, i8*, i64, i64, ...) @PyArg_UnpackTuple(i8* %py_args, i8* getelementptr inbounds ([20 x i8], [20 x i8]* @.const.add_discard_usecase, i64 0, i64 0), i64 3, i64 3, i8** nonnull %.5, i8** nonnull %.6, i8** nonnull %.7)
  %.9 = icmp eq i32 %.8, 0
  %.232 = alloca { i8*, i8* }, align 8
  %.fca.0.gep = getelementptr inbounds { i8*, i8* }, { i8*, i8* }* %.232, i64 0, i32 0
  %.fca.1.gep = getelementptr inbounds { i8*, i8* }, { i8*, i8* }* %.232, i64 0, i32 1
  %excinfo = alloca { i8*, i32, i8* }*, align 8
  %0 = bitcast { i8*, i8* }* %.232 to i8*
  call void @llvm.memset.p0i8.i64(i8* nonnull align 8 dereferenceable(16) %0, i8 0, i64 16, i1 false)
  store { i8*, i32, i8* }* null, { i8*, i32, i8* }** %excinfo, align 8
  br i1 %.9, label %entry.if, label %entry.endif, !prof !2

entry.if:                                         ; preds = %entry.endif.endif.endif.e...endif.4.endif.if, %entry.endif.endif.endif.e...endif.3.endif, %entry.endif.endif.endif.e...endif.1.endif.endif, %entry.endif.endif.endif.e...endif.4.endif.endif, %entry.endif.endif.endif.e...endif.4.endif.if.if, %entry.endif.endif.endif.endif.endif.endif.endif, %entry.endif.endif.endif.e...endif.4.endif.endif.if, %entry.endif.endif.endif.e...endif.5, %entry
  ret i8* null

entry.endif:                                      ; preds = %entry
  %.13 = load i8*, i8** @_ZN08NumbaEnv5numba5tests9test_sets19add_discard_usecaseB2v1B38c8tJTIcFHzwl2ILiXkcBV0KBSgP9CGZpAgA_3dE8UniTupleI5TupleIxibELi1EE5TupleIxibE5TupleIxibE, align 8
  %.18 = icmp eq i8* %.13, null
  br i1 %.18, label %entry.endif.if, label %entry.endif.endif, !prof !2

entry.endif.if:                                   ; preds = %entry.endif
  call void @PyErr_SetString(i8* nonnull @PyExc_RuntimeError, i8* getelementptr inbounds ([172 x i8], [172 x i8]* @".const.missing Environment: _ZN08NumbaEnv5numba5tests9test_sets19add_discard_usecaseB2v1B38c8tJTIcFHzwl2ILiXkcBV0KBSgP9CGZpAgA_3dE8UniTupleI5TupleIxibELi1EE5TupleIxibE5TupleIxibE", i64 0, i64 0))
  ret i8* null

entry.endif.endif:                                ; preds = %entry.endif
  %.22 = load i8*, i8** %.5, align 8
  %.28 = call i64 @PyTuple_Size(i8* %.22)
  %.29.not = icmp eq i64 %.28, 1
  br i1 %.29.not, label %entry.endif.endif.endif, label %entry.endif.endif.if, !prof !24

entry.endif.endif.if:                             ; preds = %entry.endif.endif
  call void (i8*, i8*, ...) @PyErr_Format(i8* nonnull @PyExc_ValueError, i8* getelementptr inbounds ([59 x i8], [59 x i8]* @".const.size mismatch for tuple, expected 1 element(s) but got %zd", i64 0, i64 0), i64 %.28)
  br label %entry.endif.endif.endif

entry.endif.endif.endif:                          ; preds = %entry.endif.endif, %entry.endif.endif.if
  %.23.0 = phi i1 [ true, %entry.endif.endif.if ], [ false, %entry.endif.endif ]
  %.35 = call i8* @PyTuple_GetItem(i8* %.22, i64 0)
  %.41 = call i64 @PyTuple_Size(i8* %.35)
  %.42.not = icmp eq i64 %.41, 3
  br i1 %.42.not, label %entry.endif.endif.endif.endif, label %entry.endif.endif.endif.if, !prof !24

entry.endif.endif.endif.if:                       ; preds = %entry.endif.endif.endif
  call void (i8*, i8*, ...) @PyErr_Format(i8* nonnull @PyExc_ValueError, i8* getelementptr inbounds ([59 x i8], [59 x i8]* @".const.size mismatch for tuple, expected 3 element(s) but got %zd", i64 0, i64 0), i64 %.41)
  br label %entry.endif.endif.endif.endif

entry.endif.endif.endif.endif:                    ; preds = %entry.endif.endif.endif, %entry.endif.endif.endif.if
  %.36.0 = phi i1 [ true, %entry.endif.endif.endif.if ], [ false, %entry.endif.endif.endif ]
  %.48 = call i8* @PyTuple_GetItem(i8* %.35, i64 0)
  %.51 = call i8* @PyNumber_Long(i8* %.48)
  %.52.not = icmp eq i8* %.51, null
  br i1 %.52.not, label %entry.endif.endif.endif.endif.endif, label %entry.endif.endif.endif.endif.if, !prof !2

entry.endif.endif.endif.endif.if:                 ; preds = %entry.endif.endif.endif.endif
  %.54 = call i64 @PyLong_AsLongLong(i8* nonnull %.51)
  call void @Py_DecRef(i8* nonnull %.51)
  br label %entry.endif.endif.endif.endif.endif

entry.endif.endif.endif.endif.endif:              ; preds = %entry.endif.endif.endif.endif, %entry.endif.endif.endif.endif.if
  %.49.0 = phi i64 [ %.54, %entry.endif.endif.endif.endif.if ], [ 0, %entry.endif.endif.endif.endif ]
  %.59 = call i8* @PyErr_Occurred()
  %.60.not = icmp ne i8* %.59, null
  %spec.select = or i1 %.36.0, %.60.not
  %.64 = call i8* @PyTuple_GetItem(i8* %.35, i64 1)
  %.67 = call i8* @PyNumber_Long(i8* %.64)
  %.68.not = icmp eq i8* %.67, null
  br i1 %.68.not, label %entry.endif.endif.endif.endif.endif.endif.endif, label %entry.endif.endif.endif.endif.endif.endif.if, !prof !2

entry.endif.endif.endif.endif.endif.endif.if:     ; preds = %entry.endif.endif.endif.endif.endif
  %.70 = call i64 @PyLong_AsLongLong(i8* nonnull %.67)
  call void @Py_DecRef(i8* nonnull %.67)
  %.72 = trunc i64 %.70 to i32
  br label %entry.endif.endif.endif.endif.endif.endif.endif

entry.endif.endif.endif.endif.endif.endif.endif:  ; preds = %entry.endif.endif.endif.endif.endif, %entry.endif.endif.endif.endif.endif.endif.if
  %.65.0 = phi i32 [ %.72, %entry.endif.endif.endif.endif.endif.endif.if ], [ 0, %entry.endif.endif.endif.endif.endif ]
  %.76 = call i8* @PyErr_Occurred()
  %.77.not = icmp ne i8* %.76, null
  %spec.select5 = or i1 %spec.select, %.77.not
  %.81 = call i8* @PyTuple_GetItem(i8* %.35, i64 2)
  %.82 = call i32 @PyObject_IsTrue(i8* %.81)
  %.83 = icmp ne i32 %.82, 0
  %.84 = call i8* @PyErr_Occurred()
  %.85.not = icmp ne i8* %.84, null
  %.36.3 = or i1 %spec.select5, %.85.not
  %spec.select6 = or i1 %.23.0, %.36.3
  br i1 %spec.select6, label %entry.if, label %entry.endif.endif.endif.e...endif.endif.endif, !prof !2

entry.endif.endif.endif.e...endif.endif.endif:    ; preds = %entry.endif.endif.endif.endif.endif.endif.endif
  %.106 = load i8*, i8** %.6, align 8
  %.112 = call i64 @PyTuple_Size(i8* %.106)
  %.113.not = icmp eq i64 %.112, 3
  br i1 %.113.not, label %entry.endif.endif.endif.e...endif.endif.endif.endif, label %entry.endif.endif.endif.e...endif.endif.endif.if, !prof !24

entry.endif.endif.endif.e...endif.endif.endif.if: ; preds = %entry.endif.endif.endif.e...endif.endif.endif
  call void (i8*, i8*, ...) @PyErr_Format(i8* nonnull @PyExc_ValueError, i8* getelementptr inbounds ([59 x i8], [59 x i8]* @".const.size mismatch for tuple, expected 3 element(s) but got %zd", i64 0, i64 0), i64 %.112)
  br label %entry.endif.endif.endif.e...endif.endif.endif.endif

entry.endif.endif.endif.e...endif.endif.endif.endif: ; preds = %entry.endif.endif.endif.e...endif.endif.endif, %entry.endif.endif.endif.e...endif.endif.endif.if
  %.107.0 = phi i1 [ true, %entry.endif.endif.endif.e...endif.endif.endif.if ], [ false, %entry.endif.endif.endif.e...endif.endif.endif ]
  %.119 = call i8* @PyTuple_GetItem(i8* %.106, i64 0)
  %.122 = call i8* @PyNumber_Long(i8* %.119)
  %.123.not = icmp eq i8* %.122, null
  br i1 %.123.not, label %entry.endif.endif.endif.e...endif.1, label %entry.endif.endif.endif.e...if.1, !prof !2

entry.endif.endif.endif.e...if.1:                 ; preds = %entry.endif.endif.endif.e...endif.endif.endif.endif
  %.125 = call i64 @PyLong_AsLongLong(i8* nonnull %.122)
  call void @Py_DecRef(i8* nonnull %.122)
  br label %entry.endif.endif.endif.e...endif.1

entry.endif.endif.endif.e...endif.1:              ; preds = %entry.endif.endif.endif.e...endif.endif.endif.endif, %entry.endif.endif.endif.e...if.1
  %.120.0 = phi i64 [ %.125, %entry.endif.endif.endif.e...if.1 ], [ 0, %entry.endif.endif.endif.e...endif.endif.endif.endif ]
  %.130 = call i8* @PyErr_Occurred()
  %.131.not = icmp ne i8* %.130, null
  %spec.select7 = or i1 %.107.0, %.131.not
  %.135 = call i8* @PyTuple_GetItem(i8* %.106, i64 1)
  %.138 = call i8* @PyNumber_Long(i8* %.135)
  %.139.not = icmp eq i8* %.138, null
  br i1 %.139.not, label %entry.endif.endif.endif.e...endif.1.endif.endif, label %entry.endif.endif.endif.e...endif.1.endif.if, !prof !2

entry.endif.endif.endif.e...endif.1.endif.if:     ; preds = %entry.endif.endif.endif.e...endif.1
  %.141 = call i64 @PyLong_AsLongLong(i8* nonnull %.138)
  call void @Py_DecRef(i8* nonnull %.138)
  %.143 = trunc i64 %.141 to i32
  br label %entry.endif.endif.endif.e...endif.1.endif.endif

entry.endif.endif.endif.e...endif.1.endif.endif:  ; preds = %entry.endif.endif.endif.e...endif.1, %entry.endif.endif.endif.e...endif.1.endif.if
  %.136.0 = phi i32 [ %.143, %entry.endif.endif.endif.e...endif.1.endif.if ], [ 0, %entry.endif.endif.endif.e...endif.1 ]
  %.147 = call i8* @PyErr_Occurred()
  %.148.not = icmp ne i8* %.147, null
  %spec.select8 = or i1 %spec.select7, %.148.not
  %.152 = call i8* @PyTuple_GetItem(i8* %.106, i64 2)
  %.153 = call i32 @PyObject_IsTrue(i8* %.152)
  %.154 = icmp ne i32 %.153, 0
  %.155 = call i8* @PyErr_Occurred()
  %.156.not = icmp ne i8* %.155, null
  %.107.3 = or i1 %spec.select8, %.156.not
  br i1 %.107.3, label %entry.if, label %entry.endif.endif.endif.e...endif.2.endif, !prof !2

entry.endif.endif.endif.e...endif.2.endif:        ; preds = %entry.endif.endif.endif.e...endif.1.endif.endif
  %.169 = load i8*, i8** %.7, align 8
  %.175 = call i64 @PyTuple_Size(i8* %.169)
  %.176.not = icmp eq i64 %.175, 3
  br i1 %.176.not, label %entry.endif.endif.endif.e...endif.2.endif.endif, label %entry.endif.endif.endif.e...endif.2.endif.if, !prof !24

entry.endif.endif.endif.e...endif.2.endif.if:     ; preds = %entry.endif.endif.endif.e...endif.2.endif
  call void (i8*, i8*, ...) @PyErr_Format(i8* nonnull @PyExc_ValueError, i8* getelementptr inbounds ([59 x i8], [59 x i8]* @".const.size mismatch for tuple, expected 3 element(s) but got %zd", i64 0, i64 0), i64 %.175)
  br label %entry.endif.endif.endif.e...endif.2.endif.endif

entry.endif.endif.endif.e...endif.2.endif.endif:  ; preds = %entry.endif.endif.endif.e...endif.2.endif, %entry.endif.endif.endif.e...endif.2.endif.if
  %.170.0 = phi i1 [ true, %entry.endif.endif.endif.e...endif.2.endif.if ], [ false, %entry.endif.endif.endif.e...endif.2.endif ]
  %.182 = call i8* @PyTuple_GetItem(i8* %.169, i64 0)
  %.185 = call i8* @PyNumber_Long(i8* %.182)
  %.186.not = icmp eq i8* %.185, null
  br i1 %.186.not, label %entry.endif.endif.endif.e...endif.2.endif.endif.endif, label %entry.endif.endif.endif.e...endif.2.endif.endif.if, !prof !2

entry.endif.endif.endif.e...endif.2.endif.endif.if: ; preds = %entry.endif.endif.endif.e...endif.2.endif.endif
  %.188 = call i64 @PyLong_AsLongLong(i8* nonnull %.185)
  call void @Py_DecRef(i8* nonnull %.185)
  br label %entry.endif.endif.endif.e...endif.2.endif.endif.endif

entry.endif.endif.endif.e...endif.2.endif.endif.endif: ; preds = %entry.endif.endif.endif.e...endif.2.endif.endif, %entry.endif.endif.endif.e...endif.2.endif.endif.if
  %.183.0 = phi i64 [ %.188, %entry.endif.endif.endif.e...endif.2.endif.endif.if ], [ 0, %entry.endif.endif.endif.e...endif.2.endif.endif ]
  %.193 = call i8* @PyErr_Occurred()
  %.194.not = icmp ne i8* %.193, null
  %spec.select9 = or i1 %.170.0, %.194.not
  %.198 = call i8* @PyTuple_GetItem(i8* %.169, i64 1)
  %.201 = call i8* @PyNumber_Long(i8* %.198)
  %.202.not = icmp eq i8* %.201, null
  br i1 %.202.not, label %entry.endif.endif.endif.e...endif.3.endif, label %entry.endif.endif.endif.e...endif.3.if, !prof !2

entry.endif.endif.endif.e...endif.3.if:           ; preds = %entry.endif.endif.endif.e...endif.2.endif.endif.endif
  %.204 = call i64 @PyLong_AsLongLong(i8* nonnull %.201)
  call void @Py_DecRef(i8* nonnull %.201)
  %.206 = trunc i64 %.204 to i32
  br label %entry.endif.endif.endif.e...endif.3.endif

entry.endif.endif.endif.e...endif.3.endif:        ; preds = %entry.endif.endif.endif.e...endif.2.endif.endif.endif, %entry.endif.endif.endif.e...endif.3.if
  %.199.0 = phi i32 [ %.206, %entry.endif.endif.endif.e...endif.3.if ], [ 0, %entry.endif.endif.endif.e...endif.2.endif.endif.endif ]
  %.210 = call i8* @PyErr_Occurred()
  %.211.not = icmp ne i8* %.210, null
  %spec.select10 = or i1 %spec.select9, %.211.not
  %.215 = call i8* @PyTuple_GetItem(i8* %.169, i64 2)
  %.216 = call i32 @PyObject_IsTrue(i8* %.215)
  %.218 = call i8* @PyErr_Occurred()
  %.219.not = icmp ne i8* %.218, null
  %.170.3 = or i1 %spec.select10, %.219.not
  br i1 %.170.3, label %entry.if, label %entry.endif.endif.endif.e...endif.4, !prof !2

entry.endif.endif.endif.e...endif.4:              ; preds = %entry.endif.endif.endif.e...endif.3.endif
  %.217 = icmp ne i32 %.216, 0
  %.237 = zext i1 %.83 to i8
  %.238 = zext i1 %.154 to i8
  %.239 = zext i1 %.217 to i8
  %1 = bitcast { i8*, i8* }* %.232 to i8*
  call void @llvm.memset.p0i8.i64(i8* nonnull align 8 dereferenceable(16) %1, i8 0, i64 16, i1 false)
  %.240 = call i32 @_ZN5numba5tests9test_sets19add_discard_usecaseB2v1B38c8tJTIcFHzwl2ILiXkcBV0KBSgP9CGZpAgA_3dE8UniTupleI5TupleIxibELi1EE5TupleIxibE5TupleIxibE({ i8*, i8* }* nonnull %.232, { i8*, i32, i8* }** nonnull %excinfo, i64 %.49.0, i32 %.65.0, i8 %.237, i64 %.120.0, i32 %.136.0, i8 %.238, i64 %.183.0, i32 %.199.0, i8 %.239) #5
  %.241 = load { i8*, i32, i8* }*, { i8*, i32, i8* }** %excinfo, align 8
  %.250.fca.0.load = load i8*, i8** %.fca.0.gep, align 8
  %.250.fca.1.load = load i8*, i8** %.fca.1.gep, align 8
  switch i32 %.240, label %entry.endif.endif.endif.e...endif.4.endif [
    i32 -2, label %entry.endif.endif.endif.e...endif.4.if.if
    i32 0, label %entry.endif.endif.endif.e...endif.4.if.endif
  ]

entry.endif.endif.endif.e...endif.4.endif:        ; preds = %entry.endif.endif.endif.e...endif.4
  %.248 = icmp sgt i32 %.240, 0
  br i1 %.248, label %entry.endif.endif.endif.e...endif.4.endif.if, label %entry.endif.endif.endif.e...endif.4.endif.endif

entry.endif.endif.endif.e...endif.4.if.if:        ; preds = %entry.endif.endif.endif.e...endif.4
  call void @Py_IncRef(i8* nonnull @_Py_NoneStruct)
  ret i8* @_Py_NoneStruct

entry.endif.endif.endif.e...endif.4.if.endif:     ; preds = %entry.endif.endif.endif.e...endif.4
  %.267.not = icmp eq i8* %.250.fca.1.load, null
  br i1 %.267.not, label %entry.endif.endif.endif.e...endif.4.if.endif.else, label %entry.endif.endif.endif.e...endif.4.if.endif.if

entry.endif.endif.endif.e...endif.4.if.endif.if:  ; preds = %entry.endif.endif.endif.e...endif.4.if.endif
  call void @Py_IncRef(i8* nonnull %.250.fca.1.load)
  br label %entry.endif.endif.endif.e...endif.4.if.endif.endif

entry.endif.endif.endif.e...endif.4.if.endif.else: ; preds = %entry.endif.endif.endif.e...endif.4.if.endif
  %.5.i = getelementptr i8, i8* %.250.fca.0.load, i64 24
  %2 = bitcast i8* %.5.i to { i64, i64, i8, { i64, i32, i8 } }**
  %.6.i11 = load { i64, i64, i8, { i64, i32, i8 } }*, { i64, i64, i8, { i64, i32, i8 } }** %2, align 8
  %.275 = getelementptr inbounds { i64, i64, i8, { i64, i32, i8 } }, { i64, i64, i8, { i64, i32, i8 } }* %.6.i11, i64 0, i32 0
  %.276 = load i64, i64* %.275, align 8
  %.277 = call i8* @PyList_New(i64 %.276)
  %.278 = icmp ne i8* %.277, null
  %.2813 = icmp sgt i64 %.276, 0
  %or.cond = and i1 %.2813, %.278
  br i1 %or.cond, label %for.body, label %entry.endif.endif.endif.e...endif.4.if.endif.endif, !prof !33

entry.endif.endif.endif.e...endif.4.if.endif.endif: ; preds = %for.body, %entry.endif.endif.endif.e...endif.4.if.endif.else, %entry.endif.endif.endif.e...endif.4.if.endif.if
  %.264.0 = phi i8* [ %.250.fca.1.load, %entry.endif.endif.endif.e...endif.4.if.endif.if ], [ %.277, %entry.endif.endif.endif.e...endif.4.if.endif.else ], [ %.277, %for.body ]
  call void @NRT_decref(i8* %.250.fca.0.load)
  ret i8* %.264.0

for.body:                                         ; preds = %entry.endif.endif.endif.e...endif.4.if.endif.else, %for.body
  %loop.index4 = phi i64 [ %.323, %for.body ], [ 0, %entry.endif.endif.endif.e...endif.4.if.endif.else ]
  %.6.i212 = load { i64, i64, i8, { i64, i32, i8 } }*, { i64, i64, i8, { i64, i32, i8 } }** %2, align 8
  %.287 = getelementptr inbounds { i64, i64, i8, { i64, i32, i8 } }, { i64, i64, i8, { i64, i32, i8 } }* %.6.i212, i64 0, i32 3
  %.288 = getelementptr { i64, i32, i8 }, { i64, i32, i8 }* %.287, i64 %loop.index4
  %.289 = load { i64, i32, i8 }, { i64, i32, i8 }* %.288, align 8
  %.290 = extractvalue { i64, i32, i8 } %.289, 0
  %.291 = extractvalue { i64, i32, i8 } %.289, 1
  %.292 = extractvalue { i64, i32, i8 } %.289, 2
  %.295 = icmp ne i8 %.292, 0
  %.302 = call i8* @PyTuple_New(i32 3)
  %.306 = call i8* @PyLong_FromLongLong(i64 %.290)
  %.309 = call i32 @PyTuple_SetItem(i8* %.302, i32 0, i8* %.306)
  %.311 = sext i32 %.291 to i64
  %.314 = call i8* @PyLong_FromLongLong(i64 %.311)
  %.317 = call i32 @PyTuple_SetItem(i8* %.302, i32 1, i8* %.314)
  %.319 = zext i1 %.295 to i64
  %.320 = call i8* @PyBool_FromLong(i64 %.319)
  %.321 = call i32 @PyTuple_SetItem(i8* %.302, i32 2, i8* %.320)
  %.322 = call i32 @PyList_SetItem(i8* nonnull %.277, i64 %loop.index4, i8* %.302)
  %.323 = add nuw nsw i64 %loop.index4, 1
  %exitcond.not = icmp eq i64 %.323, %.276
  br i1 %exitcond.not, label %entry.endif.endif.endif.e...endif.4.if.endif.endif, label %for.body

entry.endif.endif.endif.e...endif.4.endif.if:     ; preds = %entry.endif.endif.endif.e...endif.4.endif
  call void @PyErr_Clear()
  %.334 = load { i8*, i32, i8* }, { i8*, i32, i8* }* %.241, align 8
  %.335 = extractvalue { i8*, i32, i8* } %.334, 0
  %.337 = extractvalue { i8*, i32, i8* } %.334, 1
  %.339 = extractvalue { i8*, i32, i8* } %.334, 2
  %.340 = call i8* @numba_unpickle(i8* %.335, i32 %.337, i8* %.339)
  %.341.not = icmp eq i8* %.340, null
  br i1 %.341.not, label %entry.if, label %entry.endif.endif.endif.e...endif.4.endif.if.if, !prof !2

entry.endif.endif.endif.e...endif.4.endif.endif:  ; preds = %entry.endif.endif.endif.e...endif.4.endif
  switch i32 %.240, label %entry.endif.endif.endif.e...endif.5 [
    i32 -3, label %entry.endif.endif.endif.e...endif.4.endif.endif.if
    i32 -1, label %entry.if
  ]

entry.endif.endif.endif.e...endif.4.endif.if.if:  ; preds = %entry.endif.endif.endif.e...endif.4.endif.if
  call void @numba_do_raise(i8* nonnull %.340)
  br label %entry.if

entry.endif.endif.endif.e...endif.4.endif.endif.if: ; preds = %entry.endif.endif.endif.e...endif.4.endif.endif
  call void @PyErr_SetNone(i8* nonnull @PyExc_StopIteration)
  br label %entry.if

entry.endif.endif.endif.e...endif.5:              ; preds = %entry.endif.endif.endif.e...endif.4.endif.endif
  call void @PyErr_SetString(i8* nonnull @PyExc_SystemError, i8* getelementptr inbounds ([43 x i8], [43 x i8]* @".const.unknown error when calling native function", i64 0, i64 0))
  br label %entry.if
}

declare i32 @PyArg_UnpackTuple(i8*, i8*, i64, i64, ...) local_unnamed_addr

declare void @PyErr_SetString(i8*, i8*) local_unnamed_addr

declare i64 @PyTuple_Size(i8*) local_unnamed_addr

declare void @PyErr_Format(i8*, i8*, ...) local_unnamed_addr

declare i8* @PyTuple_GetItem(i8*, i64) local_unnamed_addr

declare i8* @PyNumber_Long(i8*) local_unnamed_addr

declare i64 @PyLong_AsLongLong(i8*) local_unnamed_addr

declare void @Py_DecRef(i8*) local_unnamed_addr

declare i8* @PyErr_Occurred() local_unnamed_addr

declare i32 @PyObject_IsTrue(i8*) local_unnamed_addr

declare void @Py_IncRef(i8*) local_unnamed_addr

declare i8* @PyList_New(i64) local_unnamed_addr

declare i8* @PyTuple_New(i32) local_unnamed_addr

declare i8* @PyLong_FromLongLong(i64) local_unnamed_addr

declare i32 @PyTuple_SetItem(i8*, i32, i8*) local_unnamed_addr

declare i8* @PyBool_FromLong(i64) local_unnamed_addr

declare i32 @PyList_SetItem(i8*, i64, i8*) local_unnamed_addr

declare void @PyErr_Clear() local_unnamed_addr

declare i8* @numba_unpickle(i8*, i32, i8*) local_unnamed_addr

declare void @numba_do_raise(i8*) local_unnamed_addr

declare void @PyErr_SetNone(i8*) local_unnamed_addr

define { i8*, i8* } @cfunc._ZN5numba5tests9test_sets19add_discard_usecaseB2v1B38c8tJTIcFHzwl2ILiXkcBV0KBSgP9CGZpAgA_3dE8UniTupleI5TupleIxibELi1EE5TupleIxibE5TupleIxibE([1 x { i64, i32, i1 }] %.1, { i64, i32, i1 } %.2, { i64, i32, i1 } %.3) local_unnamed_addr {
entry:
  %.5 = alloca { i8*, i8* }, align 8
  %.fca.0.gep = getelementptr inbounds { i8*, i8* }, { i8*, i8* }* %.5, i64 0, i32 0
  %.fca.1.gep = getelementptr inbounds { i8*, i8* }, { i8*, i8* }* %.5, i64 0, i32 1
  %excinfo = alloca { i8*, i32, i8* }*, align 8
  %0 = bitcast { i8*, i8* }* %.5 to i8*
  call void @llvm.memset.p0i8.i64(i8* nonnull align 8 dereferenceable(16) %0, i8 0, i64 16, i1 false)
  store { i8*, i32, i8* }* null, { i8*, i32, i8* }** %excinfo, align 8
  %.9 = extractvalue [1 x { i64, i32, i1 }] %.1, 0
  %extracted.f0 = extractvalue { i64, i32, i1 } %.9, 0
  %extracted.f1 = extractvalue { i64, i32, i1 } %.9, 1
  %extracted.f2 = extractvalue { i64, i32, i1 } %.9, 2
  %.10 = zext i1 %extracted.f2 to i8
  %extracted.f0.1 = extractvalue { i64, i32, i1 } %.2, 0
  %extracted.f1.1 = extractvalue { i64, i32, i1 } %.2, 1
  %extracted.f2.1 = extractvalue { i64, i32, i1 } %.2, 2
  %.11 = zext i1 %extracted.f2.1 to i8
  %extracted.f0.2 = extractvalue { i64, i32, i1 } %.3, 0
  %extracted.f1.2 = extractvalue { i64, i32, i1 } %.3, 1
  %extracted.f2.2 = extractvalue { i64, i32, i1 } %.3, 2
  %.12 = zext i1 %extracted.f2.2 to i8
  %.13 = call i32 @_ZN5numba5tests9test_sets19add_discard_usecaseB2v1B38c8tJTIcFHzwl2ILiXkcBV0KBSgP9CGZpAgA_3dE8UniTupleI5TupleIxibELi1EE5TupleIxibE5TupleIxibE({ i8*, i8* }* nonnull %.5, { i8*, i32, i8* }** nonnull %excinfo, i64 %extracted.f0, i32 %extracted.f1, i8 %.10, i64 %extracted.f0.1, i32 %extracted.f1.1, i8 %.11, i64 %extracted.f0.2, i32 %extracted.f1.2, i8 %.12) #5
  %.14 = load { i8*, i32, i8* }*, { i8*, i32, i8* }** %excinfo, align 8
  %.23.fca.0.load = load i8*, i8** %.fca.0.gep, align 8
  %.23.fca.1.load = load i8*, i8** %.fca.1.gep, align 8
  %.27 = alloca i32, align 4
  store i32 0, i32* %.27, align 4
  switch i32 %.13, label %entry.if [
    i32 -2, label %entry.endif
    i32 0, label %entry.endif
  ]

entry.if:                                         ; preds = %entry
  %.21 = icmp sgt i32 %.13, 0
  call void @numba_gil_ensure(i32* nonnull %.27)
  br i1 %.21, label %entry.if.if, label %entry.if.endif

entry.endif:                                      ; preds = %entry, %entry, %.30
  %.23.fca.0.insert = insertvalue { i8*, i8* } undef, i8* %.23.fca.0.load, 0
  %.23.fca.1.insert = insertvalue { i8*, i8* } %.23.fca.0.insert, i8* %.23.fca.1.load, 1
  ret { i8*, i8* } %.23.fca.1.insert

.30:                                              ; preds = %entry.if.if, %entry.if.endif, %entry.if.if.if, %entry.if.endif.endif.endif, %entry.if.endif.if
  %.52 = call i8* @PyUnicode_FromString(i8* getelementptr inbounds ([51 x i8], [51 x i8]* @".const.<numba.core.cpu.CPUContext object at 0x7f7f943a90>", i64 0, i64 0))
  call void @PyErr_WriteUnraisable(i8* %.52)
  call void @Py_DecRef(i8* %.52)
  call void @numba_gil_release(i32* nonnull %.27)
  br label %entry.endif

entry.if.if:                                      ; preds = %entry.if
  call void @PyErr_Clear()
  %.33 = load { i8*, i32, i8* }, { i8*, i32, i8* }* %.14, align 8
  %.34 = extractvalue { i8*, i32, i8* } %.33, 0
  %.36 = extractvalue { i8*, i32, i8* } %.33, 1
  %.38 = extractvalue { i8*, i32, i8* } %.33, 2
  %.39 = call i8* @numba_unpickle(i8* %.34, i32 %.36, i8* %.38)
  %.40.not = icmp eq i8* %.39, null
  br i1 %.40.not, label %.30, label %entry.if.if.if, !prof !2

entry.if.endif:                                   ; preds = %entry.if
  switch i32 %.13, label %entry.if.endif.endif.endif [
    i32 -3, label %entry.if.endif.if
    i32 -1, label %.30
  ]

entry.if.if.if:                                   ; preds = %entry.if.if
  call void @numba_do_raise(i8* nonnull %.39)
  br label %.30

entry.if.endif.if:                                ; preds = %entry.if.endif
  call void @PyErr_SetNone(i8* nonnull @PyExc_StopIteration)
  br label %.30

entry.if.endif.endif.endif:                       ; preds = %entry.if.endif
  call void @PyErr_SetString(i8* nonnull @PyExc_SystemError, i8* getelementptr inbounds ([43 x i8], [43 x i8]* @".const.unknown error when calling native function.1", i64 0, i64 0))
  br label %.30
}

declare void @numba_gil_ensure(i32*) local_unnamed_addr

declare i8* @PyUnicode_FromString(i8*) local_unnamed_addr

declare void @PyErr_WriteUnraisable(i8*) local_unnamed_addr

declare void @numba_gil_release(i32*) local_unnamed_addr

; Function Attrs: argmemonly nounwind willreturn
declare void @llvm.lifetime.start.p0i8(i64 immarg, i8* nocapture) #2

; Function Attrs: nofree norecurse nounwind writeonly
define linkonce_odr i32 @_ZN5numba7cpython7hashing11_tuple_hashB2v4B42c8tJTIcFHzwl2ILiXkcBV0KBSmNGHkyiCKJEEwA_3dE5TupleIxibE(i64* noalias nocapture %retptr, { i8*, i32, i8* }** noalias nocapture %excinfo, i64 %arg.tup.0, i32 %arg.tup.1, i8 %arg.tup.2) local_unnamed_addr #3 {
entry:
  %.9.not = icmp eq i8 %arg.tup.2, 0
  %.578 = select i1 %.9.not, i64 0, i64 -4417276706812531889
  %.5.i.i = sext i32 %arg.tup.1 to i64
  %.10.i.i = icmp slt i32 %arg.tup.1, 0
  %.11.i.i = sub nsw i64 0, %.5.i.i
  %.12.i.i = select i1 %.10.i.i, i64 %.11.i.i, i64 %.5.i.i
  %.13.i.i = sitofp i64 %.12.i.i to double
  %.15.i.i = fcmp olt double %.13.i.i, 0x43C0000000000000
  %0 = lshr i64 %.12.i.i, 61
  %.187.2.i.i.i = and i64 %.12.i.i, 2305843008139952128
  %.193.2.i.i.i = or i64 %.187.2.i.i.i, %0
  %.199.2.i.i.i = and i64 %.12.i.i, 1073741823
  %.201.2.i.i.i = add nuw nsw i64 %.193.2.i.i.i, %.199.2.i.i.i
  %.210.2.i.i.i = icmp ugt i64 %.201.2.i.i.i, 2305843009213693950
  %.213.2.i.i.i = add nsw i64 %.201.2.i.i.i, -2305843009213693951
  %spec.select.2.i.i.i = select i1 %.210.2.i.i.i, i64 %.213.2.i.i.i, i64 %.201.2.i.i.i
  %.170.i.i = sub i64 0, %spec.select.2.i.i.i
  %ret.5.0.i.i = select i1 %.10.i.i, i64 %.170.i.i, i64 %spec.select.2.i.i.i
  %.8.i.i.i = icmp eq i64 %ret.5.0.i.i, -1
  %spec.select.i.i.i = select i1 %.8.i.i.i, i64 -2, i64 %ret.5.0.i.i
  %.9.i.i = icmp slt i64 %arg.tup.0, 0
  %.10.i.i1 = sub i64 0, %arg.tup.0
  %.11.i.i2 = select i1 %.9.i.i, i64 %.10.i.i1, i64 %arg.tup.0
  %.12.i.i3 = sitofp i64 %.11.i.i2 to double
  %1 = ashr i64 %.11.i.i2, 30
  %.187.2.i.i.i5 = and i64 %.11.i.i2, 2305843008139952128
  %.186.1.i.i.i = lshr i64 %1, 31
  %.190.2.i.i.i = and i64 %.186.1.i.i.i, 536870911
  %.193.2.i.i.i6 = or i64 %.190.2.i.i.i, %.187.2.i.i.i5
  %.199.2.i.i.i7 = and i64 %.11.i.i2, 1073741823
  %.201.2.i.i.i8 = add nuw nsw i64 %.193.2.i.i.i6, %.199.2.i.i.i7
  %.210.2.i.i.i9 = icmp ugt i64 %.201.2.i.i.i8, 2305843009213693950
  %.213.2.i.i.i10 = add nsw i64 %.201.2.i.i.i8, -2305843009213693951
  %spec.select.2.i.i.i11 = select i1 %.210.2.i.i.i9, i64 %.213.2.i.i.i10, i64 %.201.2.i.i.i8
  %.169.i.i = sub i64 0, %spec.select.2.i.i.i11
  %ret.5.0.i.i12 = select i1 %.9.i.i, i64 %.169.i.i, i64 %spec.select.2.i.i.i11
  %.8.i.i.i13 = icmp eq i64 %ret.5.0.i.i12, -1
  %spec.select.i.i.i14 = select i1 %.8.i.i.i13, i64 -2, i64 %ret.5.0.i.i12
  %.8.i1.i.i16 = icmp eq i64 %arg.tup.0, -1
  %spec.select.i2.i.i17 = select i1 %.8.i1.i.i16, i64 -2, i64 %arg.tup.0
  br i1 %.15.i.i, label %entry.split.us, label %entry.split

entry.split.us:                                   ; preds = %entry
  %.18.i.i = icmp eq i32 %arg.tup.1, 0
  %2 = fcmp olt double %.12.i.i3, 0x43C0000000000000
  br i1 %.18.i.i, label %typed_switch.0.us.us, label %typed_switch.0.us

typed_switch.0.us.us:                             ; preds = %entry.split.us
  br i1 %2, label %B26.i.i4.us.us, label %B453.us.us.2

B26.i.i4.us.us:                                   ; preds = %typed_switch.0.us.us
  switch i64 %arg.tup.0, label %B70.endif.i.i18.us.us [
    i64 0, label %B453.us.us.2
    i64 -9223372036854775808, label %B54.endif.i.i.us.us
  ]

B54.endif.i.i.us.us:                              ; preds = %B26.i.i4.us.us
  br label %B453.us.us.2

B70.endif.i.i18.us.us:                            ; preds = %B26.i.i4.us.us
  br label %B453.us.us.2

typed_switch.0.us:                                ; preds = %entry.split.us
  br i1 %2, label %B26.i.i4.us, label %B453.us.2

B26.i.i4.us:                                      ; preds = %typed_switch.0.us
  switch i64 %arg.tup.0, label %B70.endif.i.i18.us [
    i64 0, label %B453.us.2
    i64 -9223372036854775808, label %B54.endif.i.i.us
  ]

B54.endif.i.i.us:                                 ; preds = %B26.i.i4.us
  br label %B453.us.2

B70.endif.i.i18.us:                               ; preds = %B26.i.i4.us
  br label %B453.us.2

entry.split:                                      ; preds = %entry
  %3 = fcmp olt double %.12.i.i3, 0x43C0000000000000
  br i1 %3, label %B26.i.i4.us157, label %B453.2

B26.i.i4.us157:                                   ; preds = %entry.split
  switch i64 %arg.tup.0, label %B70.endif.i.i18.us159 [
    i64 0, label %B453.us167.2
    i64 -9223372036854775808, label %B54.endif.i.i.us158
  ]

B54.endif.i.i.us158:                              ; preds = %B26.i.i4.us157
  br label %B453.us167.2

B70.endif.i.i18.us159:                            ; preds = %B26.i.i4.us157
  %phi.bo185 = mul i64 %spec.select.i2.i.i17, -4417276706812531889
  %phi.bo186 = add i64 %phi.bo185, 2870177450012600261
  br label %B453.us167.2

B346:                                             ; preds = %B453.2, %B453.us167.2, %B453.us.2, %B453.us.us.2
  %.429.1.sink = phi i64 [ %.429.1, %B453.2 ], [ %.429.us151.1, %B453.us167.2 ], [ %.429.us.1, %B453.us.2 ], [ %phi.bo193, %B453.us.us.2 ]
  %.5.i21.1.sink = phi i64 [ %.5.i21.1, %B453.2 ], [ %.5.i21.us152.1, %B453.us167.2 ], [ %.5.i21.us.1, %B453.us.2 ], [ %.5.i21.us.us.1, %B453.us.us.2 ]
  %.6.i22.1 = lshr i64 %.429.1.sink, 33
  %.7.i23.1 = or i64 %.5.i21.1.sink, %.6.i22.1
  %phi.bo183 = mul i64 %.7.i23.1, -7046029288634856825
  %.582.2 = add nsw i64 %phi.bo183, %.578
  %.5.i.2 = shl i64 %.582.2, 31
  %.6.i.2 = lshr i64 %.582.2, 33
  %.7.i.2 = or i64 %.5.i.2, %.6.i.2
  %acc.11.0.lcssa = mul i64 %.7.i.2, -7046029288634856825
  %.642 = add i64 %acc.11.0.lcssa, 2870177450013471925
  %.649 = icmp eq i64 %.642, -1
  br i1 %.649, label %B399.endif, label %B452.endif

B399.endif:                                       ; preds = %B346
  store i64 1546275796, i64* %retptr, align 8
  ret i32 0

B452.endif:                                       ; preds = %B346
  store i64 %.642, i64* %retptr, align 8
  ret i32 0

B453.us.us.2:                                     ; preds = %B70.endif.i.i18.us.us, %B54.endif.i.i.us.us, %B26.i.i4.us.us, %typed_switch.0.us.us
  %.5.0.i19.us.us = phi i64 [ %spec.select.i2.i.i17, %B70.endif.i.i18.us.us ], [ -4, %B54.endif.i.i.us.us ], [ %arg.tup.0, %B26.i.i4.us.us ], [ %spec.select.i.i.i14, %typed_switch.0.us.us ]
  %.287.us.us = mul nsw i64 %.5.0.i19.us.us, -4417276706812531889
  %.291.us.us = add nsw i64 %.287.us.us, 2870177450012600261
  %.5.i29.us.us = shl i64 %.291.us.us, 31
  %.6.i30.us.us = lshr i64 %.291.us.us, 33
  %.7.i31.us.us = or i64 %.5.i29.us.us, %.6.i30.us.us
  %phi.bo193 = mul i64 %.7.i31.us.us, -7046029288634856825
  %.5.i21.us.us.1 = mul i64 %.7.i31.us.us, -4398357382984368128
  br label %B346

B453.us.2:                                        ; preds = %B70.endif.i.i18.us, %B54.endif.i.i.us, %B26.i.i4.us, %typed_switch.0.us
  %.5.0.i19.us = phi i64 [ %spec.select.i2.i.i17, %B70.endif.i.i18.us ], [ -4, %B54.endif.i.i.us ], [ %arg.tup.0, %B26.i.i4.us ], [ %spec.select.i.i.i14, %typed_switch.0.us ]
  %4 = icmp eq i32 %arg.tup.1, -1
  %.287.us = mul nsw i64 %.5.0.i19.us, -4417276706812531889
  %.291.us = add nsw i64 %.287.us, 2870177450012600261
  %.5.i29.us = shl i64 %.291.us, 31
  %.6.i30.us = lshr i64 %.291.us, 33
  %.7.i31.us = or i64 %.5.i29.us, %.6.i30.us
  %phi.bo190 = mul i64 %.7.i31.us, -7046029288634856825
  %.5.i.i.op = mul i64 %.5.i.i, -4417276706812531889
  %.425.us.1 = select i1 %4, i64 8834553413625063778, i64 %.5.i.i.op
  %.429.us.1 = add nsw i64 %phi.bo190, %.425.us.1
  %.5.i21.us.1 = shl i64 %.429.us.1, 31
  br label %B346

B453.us167.2:                                     ; preds = %B70.endif.i.i18.us159, %B54.endif.i.i.us158, %B26.i.i4.us157
  %.5.0.i19.us161 = phi i64 [ %phi.bo186, %B70.endif.i.i18.us159 ], [ 2092540203553176201, %B54.endif.i.i.us158 ], [ 2870177450012600261, %B26.i.i4.us157 ]
  %.5.i29.us164 = shl i64 %.5.0.i19.us161, 31
  %.6.i30.us165 = lshr i64 %.5.0.i19.us161, 33
  %.7.i31.us166 = or i64 %.5.i29.us164, %.6.i30.us165
  %phi.bo187 = mul i64 %.7.i31.us166, -7046029288634856825
  %.425.us150.1 = mul nsw i64 %spec.select.i.i.i, -4417276706812531889
  %.429.us151.1 = add nsw i64 %phi.bo187, %.425.us150.1
  %.5.i21.us152.1 = shl i64 %.429.us151.1, 31
  br label %B346

B453.2:                                           ; preds = %entry.split
  %.287 = mul nsw i64 %spec.select.i.i.i14, -4417276706812531889
  %.291 = add nsw i64 %.287, 2870177450012600261
  %.5.i29 = shl i64 %.291, 31
  %.6.i30 = lshr i64 %.291, 33
  %.7.i31 = or i64 %.5.i29, %.6.i30
  %phi.bo = mul i64 %.7.i31, -7046029288634856825
  %.425.1 = mul nsw i64 %spec.select.i.i.i, -4417276706812531889
  %.429.1 = add nsw i64 %phi.bo, %.425.1
  %.5.i21.1 = shl i64 %.429.1, 31
  br label %B346
}

; Function Attrs: argmemonly nounwind willreturn
declare void @llvm.lifetime.end.p0i8(i64 immarg, i8* nocapture) #2

define linkonce_odr void @".dtor.list.Tuple(int64, int32, bool)"(i8* %.1) {
.3:
  ret void
}

define linkonce_odr i32 @_ZN5numba7cpython7listobj11list_extend12_3clocals_3e11list_extendB3v22B44c8tJTC_2fWQA9wW1DkAz0Pj1skAdT4gkkUlYBZmgA_3dE62list_28Tuple_28int64_2c_20int32_2c_20bool_29_29_3civ_3dNone_3e46set_28Tuple_28int64_2c_20int32_2c_20bool_29_29(i8** noalias nocapture %retptr, { i8*, i32, i8* }** noalias nocapture %excinfo, i8* %arg.lst.0, i8* nocapture readnone %arg.lst.1, i8* nocapture readonly %arg.iterable.0, i8* nocapture readnone %arg.iterable.1) local_unnamed_addr {
entry:
  %.5.i16 = getelementptr i8, i8* %arg.iterable.0, i64 24
  %0 = bitcast i8* %.5.i16 to { i64, i64, i64, i64, i8, { i64, { i64, i32, i8 } } }**
  %.6.i172542 = load { i64, i64, i64, i64, i8, { i64, { i64, i32, i8 } } }*, { i64, i64, i64, i64, i8, { i64, { i64, i32, i8 } } }** %0, align 8
  %.6544 = getelementptr inbounds { i64, i64, i64, i64, i8, { i64, { i64, i32, i8 } } }, { i64, i64, i64, i64, i8, { i64, { i64, i32, i8 } } }* %.6.i172542, i64 0, i32 2
  %.6645 = load i64, i64* %.6544, align 8
  %.6746 = add i64 %.6645, 1
  %.692347 = icmp sgt i64 %.6746, 0
  br i1 %.692347, label %for.body.preheader.lr.ph, label %B26

for.body.preheader.lr.ph:                         ; preds = %entry
  %sunkaddr24 = getelementptr i8, i8* %arg.lst.0, i64 24
  %1 = bitcast i8* %sunkaddr24 to { i64, i64, i8, { i64, i32, i8 } }**
  %2 = bitcast i8* %sunkaddr24 to i64**
  br label %for.body.preheader

for.body.preheader:                               ; preds = %B14.endif.endif, %for.body.preheader.lr.ph
  %.6750 = phi i64 [ %.6746, %for.body.preheader.lr.ph ], [ %.67, %B14.endif.endif ]
  %.6.i172542.pn = phi { i64, i64, i64, i64, i8, { i64, { i64, i32, i8 } } }* [ %.6.i172542, %for.body.preheader.lr.ph ], [ %.6.i1725, %B14.endif.endif ]
  %.28.048 = phi i64 [ 0, %for.body.preheader.lr.ph ], [ %5, %B14.endif.endif ]
  %scevgep = getelementptr { i64, i64, i64, i64, i8, { i64, { i64, i32, i8 } } }, { i64, i64, i64, i64, i8, { i64, { i64, i32, i8 } } }* %.6.i172542.pn, i64 0, i32 5, i32 1, i32 0
  %3 = mul i64 %.28.048, 3
  %scevgep61 = getelementptr i64, i64* %scevgep, i64 %3
  br label %for.body

B14:                                              ; preds = %for.body
  %4 = bitcast i64* %lsr.iv.in to { i64, i32, i8 }*
  %.79 = load { i64, i32, i8 }, { i64, i32, i8 }* %4, align 8
  %.82 = extractvalue { i64, i32, i8 } %.79, 2
  %5 = add nsw i64 %loop.index24, 1
  %.6.i1926 = load { i64, i64, i8, { i64, i32, i8 } }*, { i64, i64, i8, { i64, i32, i8 } }** %1, align 8
  %.1306725 = getelementptr { i64, i64, i8, { i64, i32, i8 } }, { i64, i64, i8, { i64, i32, i8 } }* %.6.i1926, i64 0, i32 0
  %.131 = load i64, i64* %.1306725, align 8
  %.132 = add i64 %.131, 1
  %.137 = getelementptr inbounds { i64, i64, i8, { i64, i32, i8 } }, { i64, i64, i8, { i64, i32, i8 } }* %.6.i1926, i64 0, i32 1
  %.138 = load i64, i64* %.137, align 8
  %.140 = ashr i64 %.138, 2
  %.141 = icmp sgt i64 %.140, %.132
  br i1 %.141, label %B14.if, label %B14.endif, !prof !2

B26:                                              ; preds = %B14.endif.endif, %for.body.endif, %entry
  store i8* null, i8** %retptr, align 8
  ret i32 0

for.body:                                         ; preds = %for.body.endif, %for.body.preheader
  %lsr.iv.in = phi i64* [ %scevgep61, %for.body.preheader ], [ %6, %for.body.endif ]
  %loop.index24 = phi i64 [ %.28.048, %for.body.preheader ], [ %.99, %for.body.endif ]
  %scevgep23 = getelementptr i64, i64* %lsr.iv.in, i64 -1
  %.73 = load i64, i64* %scevgep23, align 8
  %.74 = icmp ult i64 %.73, -2
  br i1 %.74, label %B14, label %for.body.endif

for.body.endif:                                   ; preds = %for.body
  %.99 = add nsw i64 %loop.index24, 1
  %6 = getelementptr i64, i64* %lsr.iv.in, i64 3
  %.69 = icmp slt i64 %.99, %.6750
  br i1 %.69, label %for.body, label %B26

B14.if:                                           ; preds = %B14
  %.143 = tail call { i64, i1 } @llvm.smul.with.overflow.i64(i64 %.132, i64 16)
  %.144 = extractvalue { i64, i1 } %.143, 0
  %.145 = extractvalue { i64, i1 } %.143, 1
  %.146 = tail call { i64, i1 } @llvm.sadd.with.overflow.i64(i64 %.144, i64 24)
  %.148 = extractvalue { i64, i1 } %.146, 1
  %.149 = or i1 %.145, %.148
  br i1 %.149, label %B14.if.if, label %B14.if.endif, !prof !2

B14.endif:                                        ; preds = %B14.if.endif.endif, %B14
  %7 = icmp slt i64 %.138, %.132
  br i1 %7, label %B14.endif.if, label %B14.endif.endif, !prof !2

B14.if.if:                                        ; preds = %B14.if
  store { i8*, i32, i8* }* @.const.picklebuf.547595561536, { i8*, i32, i8* }** %excinfo, align 8
  ret i32 1, !ret_is_raise !15

B14.if.endif:                                     ; preds = %B14.if
  %.147 = extractvalue { i64, i1 } %.146, 0
  %.160 = tail call i8* @NRT_MemInfo_varsize_realloc(i8* nonnull %arg.lst.0, i64 %.147)
  %.161 = icmp eq i8* %.160, null
  br i1 %.161, label %B14.if.endif.if, label %B14.if.endif.endif, !prof !2

B14.if.endif.if:                                  ; preds = %B14.if.endif
  store { i8*, i32, i8* }* @.const.picklebuf.547595561536, { i8*, i32, i8* }** %excinfo, align 8
  ret i32 1, !ret_is_raise !15

B14.if.endif.endif:                               ; preds = %B14.if.endif
  %.6.i1534 = load { i64, i64, i8, { i64, i32, i8 } }*, { i64, i64, i8, { i64, i32, i8 } }** %1, align 8
  %.172 = getelementptr inbounds { i64, i64, i8, { i64, i32, i8 } }, { i64, i64, i8, { i64, i32, i8 } }* %.6.i1534, i64 0, i32 1
  store i64 %.132, i64* %.172, align 8
  br label %B14.endif

B14.endif.if:                                     ; preds = %B14.endif
  %.176 = ashr i64 %.132, 2
  %.177 = add i64 %.131, 9
  %.178 = add i64 %.177, %.176
  %.179 = tail call { i64, i1 } @llvm.smul.with.overflow.i64(i64 %.178, i64 16)
  %.180 = extractvalue { i64, i1 } %.179, 0
  %.181 = extractvalue { i64, i1 } %.179, 1
  %.182 = tail call { i64, i1 } @llvm.sadd.with.overflow.i64(i64 %.180, i64 24)
  %.184 = extractvalue { i64, i1 } %.182, 1
  %.185 = or i1 %.181, %.184
  br i1 %.185, label %B14.endif.if.if, label %B14.endif.if.endif, !prof !2

B14.endif.endif:                                  ; preds = %B14.endif.if.endif.endif, %B14.endif
  %8 = icmp ne i8 %.82, 0
  %.6.i13284 = load i64*, i64** %2, align 8
  store i64 %.132, i64* %.6.i13284, align 8
  %.6.i129 = load { i64, i64, i8, { i64, i32, i8 } }*, { i64, i64, i8, { i64, i32, i8 } }** %1, align 8
  %.261 = getelementptr inbounds { i64, i64, i8, { i64, i32, i8 } }, { i64, i64, i8, { i64, i32, i8 } }* %.6.i129, i64 0, i32 3
  %.262 = getelementptr { i64, i32, i8 }, { i64, i32, i8 }* %.261, i64 %.131
  %.263 = zext i1 %8 to i8
  %.266 = insertvalue { i64, i32, i8 } %.79, i8 %.263, 2
  store { i64, i32, i8 } %.266, { i64, i32, i8 }* %.262, align 8
  %.6.i1725 = load { i64, i64, i64, i64, i8, { i64, { i64, i32, i8 } } }*, { i64, i64, i64, i64, i8, { i64, { i64, i32, i8 } } }** %0, align 8
  %.65 = getelementptr inbounds { i64, i64, i64, i64, i8, { i64, { i64, i32, i8 } } }, { i64, i64, i64, i64, i8, { i64, { i64, i32, i8 } } }* %.6.i1725, i64 0, i32 2
  %.66 = load i64, i64* %.65, align 8
  %.67 = add i64 %.66, 1
  %.6923 = icmp slt i64 %5, %.67
  br i1 %.6923, label %for.body.preheader, label %B26

B14.endif.if.if:                                  ; preds = %B14.endif.if
  store { i8*, i32, i8* }* @.const.picklebuf.547595561536, { i8*, i32, i8* }** %excinfo, align 8
  ret i32 1, !ret_is_raise !15

B14.endif.if.endif:                               ; preds = %B14.endif.if
  %.183 = extractvalue { i64, i1 } %.182, 0
  %.194 = tail call i8* @NRT_MemInfo_varsize_realloc(i8* nonnull %arg.lst.0, i64 %.183)
  %.195 = icmp eq i8* %.194, null
  br i1 %.195, label %B14.endif.if.endif.if, label %B14.endif.if.endif.endif, !prof !2

B14.endif.if.endif.if:                            ; preds = %B14.endif.if.endif
  store { i8*, i32, i8* }* @.const.picklebuf.547595561536, { i8*, i32, i8* }** %excinfo, align 8
  ret i32 1, !ret_is_raise !15

B14.endif.if.endif.endif:                         ; preds = %B14.endif.if.endif
  %.6.i930 = load { i64, i64, i8, { i64, i32, i8 } }*, { i64, i64, i8, { i64, i32, i8 } }** %1, align 8
  %.206 = getelementptr inbounds { i64, i64, i8, { i64, i32, i8 } }, { i64, i64, i8, { i64, i32, i8 } }* %.6.i930, i64 0, i32 1
  store i64 %.178, i64* %.206, align 8
  %.6.i731 = load { i64, i64, i8, { i64, i32, i8 } }*, { i64, i64, i8, { i64, i32, i8 } }** %1, align 8
  %.2127331 = getelementptr { i64, i64, i8, { i64, i32, i8 } }, { i64, i64, i8, { i64, i32, i8 } }* %.6.i731, i64 0, i32 0
  %.213 = load i64, i64* %.2127331, align 8
  %.218 = getelementptr inbounds { i64, i64, i8, { i64, i32, i8 } }, { i64, i64, i8, { i64, i32, i8 } }* %.6.i731, i64 0, i32 3
  %.219 = getelementptr { i64, i32, i8 }, { i64, i32, i8 }* %.218, i64 %.213
  %.225 = getelementptr { i64, i32, i8 }, { i64, i32, i8 }* %.218, i64 %.178
  %.226 = ptrtoint { i64, i32, i8 }* %.225 to i64
  %.227 = ptrtoint { i64, i32, i8 }* %.219 to i64
  %.228 = sub i64 %.226, %.227
  %.229 = bitcast { i64, i32, i8 }* %.219 to i8*
  tail call void @llvm.memset.p0i8.i64(i8* align 1 %.229, i8 0, i64 %.228, i1 false)
  br label %B14.endif.endif
}

declare noalias i8* @NRT_MemInfo_varsize_realloc(i8*, i64) local_unnamed_addr

; Function Attrs: nofree noinline norecurse nounwind
define linkonce_odr void @NRT_incref(i8* %.1) local_unnamed_addr #4 {
.3:
  %.4 = icmp eq i8* %.1, null
  br i1 %.4, label %.3.if, label %.3.endif, !prof !2

.3.if:                                            ; preds = %.3
  ret void

.3.endif:                                         ; preds = %.3
  %.7 = bitcast i8* %.1 to i64*
  %.4.i = atomicrmw add i64* %.7, i64 1 monotonic
  ret void
}

; Function Attrs: noinline
define linkonce_odr void @NRT_decref(i8* %.1) local_unnamed_addr #5 {
.3:
  %.4 = icmp eq i8* %.1, null
  br i1 %.4, label %.3.if, label %.3.endif, !prof !2

.3.if:                                            ; preds = %.3.endif, %.3
  ret void

.3.endif:                                         ; preds = %.3
  fence release
  %.8 = bitcast i8* %.1 to i64*
  %.4.i = atomicrmw sub i64* %.8, i64 1 monotonic
  %.10 = icmp eq i64 %.4.i, 1
  br i1 %.10, label %.3.endif.if, label %.3.if, !prof !2

.3.endif.if:                                      ; preds = %.3.endif
  fence acquire
  tail call void @NRT_MemInfo_call_dtor(i8* nonnull %.1)
  ret void
}

declare void @NRT_MemInfo_call_dtor(i8*) local_unnamed_addr

attributes #0 = { nounwind readnone speculatable willreturn }
attributes #1 = { argmemonly nounwind willreturn writeonly }
attributes #2 = { argmemonly nounwind willreturn }
attributes #3 = { nofree norecurse nounwind writeonly }
attributes #4 = { nofree noinline norecurse nounwind }
attributes #5 = { noinline }
attributes #6 = { nounwind }

!numba_args_may_always_need_nrt = !{!0, !0, !1, !1}

!0 = distinct !{null}
!1 = !{i32 (i8**, { i8*, i32, i8* }**, i8*, i8*, i8*, i8*)* @_ZN5numba7cpython7listobj11list_extend12_3clocals_3e11list_extendB3v22B44c8tJTC_2fWQA9wW1DkAz0Pj1skAdT4gkkUlYBZmgA_3dE62list_28Tuple_28int64_2c_20int32_2c_20bool_29_29_3civ_3dNone_3e46set_28Tuple_28int64_2c_20int32_2c_20bool_29_29}
!2 = !{!"branch_weights", i32 1, i32 99}
!3 = !{!4, !6, !7, !9}
!4 = distinct !{!4, !5, !"_ZN5numba7cpython7hashing10tuple_hash12_3clocals_3e4implB2v3B42c8tJTIcFHzwl2ILiXkcBV0KBSmNGHkyiCKJEEwA_3dE5TupleIxibE: %retptr"}
!5 = distinct !{!5, !"_ZN5numba7cpython7hashing10tuple_hash12_3clocals_3e4implB2v3B42c8tJTIcFHzwl2ILiXkcBV0KBSmNGHkyiCKJEEwA_3dE5TupleIxibE"}
!6 = distinct !{!6, !5, !"_ZN5numba7cpython7hashing10tuple_hash12_3clocals_3e4implB2v3B42c8tJTIcFHzwl2ILiXkcBV0KBSmNGHkyiCKJEEwA_3dE5TupleIxibE: %excinfo"}
!7 = distinct !{!7, !8, !"_ZN5numba7cpython7hashing13hash_overload12_3clocals_3e4implB2v2B42c8tJTIcFHzwl2ILiXkcBV0KBSmNGHkyiCKJEEwA_3dE5TupleIxibE: %retptr"}
!8 = distinct !{!8, !"_ZN5numba7cpython7hashing13hash_overload12_3clocals_3e4implB2v2B42c8tJTIcFHzwl2ILiXkcBV0KBSmNGHkyiCKJEEwA_3dE5TupleIxibE"}
!9 = distinct !{!9, !8, !"_ZN5numba7cpython7hashing13hash_overload12_3clocals_3e4implB2v2B42c8tJTIcFHzwl2ILiXkcBV0KBSmNGHkyiCKJEEwA_3dE5TupleIxibE: %excinfo"}
!10 = !{!7, !9}
!11 = !{!12, !14}
!12 = distinct !{!12, !13, !"_ZN5numba7cpython7listobj16list_constructor12_3clocals_3e9list_implB3v21B44c8tJTC_2fWQA9wW1DkAz0Pj1skAdT4gkkUlYBZmgA_3dE46set_28Tuple_28int64_2c_20int32_2c_20bool_29_29: %retptr"}
!13 = distinct !{!13, !"_ZN5numba7cpython7listobj16list_constructor12_3clocals_3e9list_implB3v21B44c8tJTC_2fWQA9wW1DkAz0Pj1skAdT4gkkUlYBZmgA_3dE46set_28Tuple_28int64_2c_20int32_2c_20bool_29_29"}
!14 = distinct !{!14, !13, !"_ZN5numba7cpython7listobj16list_constructor12_3clocals_3e9list_implB3v21B44c8tJTC_2fWQA9wW1DkAz0Pj1skAdT4gkkUlYBZmgA_3dE46set_28Tuple_28int64_2c_20int32_2c_20bool_29_29: %excinfo"}
!15 = !{i1 true}
!16 = !{!17, !19}
!17 = distinct !{!17, !18, !"_ZN5numba7cpython7hashing13hash_overload12_3clocals_3e4implB2v2B42c8tJTIcFHzwl2ILiXkcBV0KBSmNGHkyiCKJEEwA_3dE5TupleIxibE: %retptr"}
!18 = distinct !{!18, !"_ZN5numba7cpython7hashing13hash_overload12_3clocals_3e4implB2v2B42c8tJTIcFHzwl2ILiXkcBV0KBSmNGHkyiCKJEEwA_3dE5TupleIxibE"}
!19 = distinct !{!19, !18, !"_ZN5numba7cpython7hashing13hash_overload12_3clocals_3e4implB2v2B42c8tJTIcFHzwl2ILiXkcBV0KBSmNGHkyiCKJEEwA_3dE5TupleIxibE: %excinfo"}
!20 = !{!21, !23, !17, !19}
!21 = distinct !{!21, !22, !"_ZN5numba7cpython7hashing10tuple_hash12_3clocals_3e4implB2v3B42c8tJTIcFHzwl2ILiXkcBV0KBSmNGHkyiCKJEEwA_3dE5TupleIxibE: %retptr"}
!22 = distinct !{!22, !"_ZN5numba7cpython7hashing10tuple_hash12_3clocals_3e4implB2v3B42c8tJTIcFHzwl2ILiXkcBV0KBSmNGHkyiCKJEEwA_3dE5TupleIxibE"}
!23 = distinct !{!23, !22, !"_ZN5numba7cpython7hashing10tuple_hash12_3clocals_3e4implB2v3B42c8tJTIcFHzwl2ILiXkcBV0KBSmNGHkyiCKJEEwA_3dE5TupleIxibE: %excinfo"}
!24 = !{!"branch_weights", i32 99, i32 1}
!25 = !{!26, !28}
!26 = distinct !{!26, !27, !"_ZN5numba7cpython7hashing13hash_overload12_3clocals_3e4implB2v2B42c8tJTIcFHzwl2ILiXkcBV0KBSmNGHkyiCKJEEwA_3dE5TupleIxibE: %retptr"}
!27 = distinct !{!27, !"_ZN5numba7cpython7hashing13hash_overload12_3clocals_3e4implB2v2B42c8tJTIcFHzwl2ILiXkcBV0KBSmNGHkyiCKJEEwA_3dE5TupleIxibE"}
!28 = distinct !{!28, !27, !"_ZN5numba7cpython7hashing13hash_overload12_3clocals_3e4implB2v2B42c8tJTIcFHzwl2ILiXkcBV0KBSmNGHkyiCKJEEwA_3dE5TupleIxibE: %excinfo"}
!29 = !{!30, !32, !26, !28}
!30 = distinct !{!30, !31, !"_ZN5numba7cpython7hashing10tuple_hash12_3clocals_3e4implB2v3B42c8tJTIcFHzwl2ILiXkcBV0KBSmNGHkyiCKJEEwA_3dE5TupleIxibE: %retptr"}
!31 = distinct !{!31, !"_ZN5numba7cpython7hashing10tuple_hash12_3clocals_3e4implB2v3B42c8tJTIcFHzwl2ILiXkcBV0KBSmNGHkyiCKJEEwA_3dE5TupleIxibE"}
!32 = distinct !{!32, !31, !"_ZN5numba7cpython7hashing10tuple_hash12_3clocals_3e4implB2v3B42c8tJTIcFHzwl2ILiXkcBV0KBSmNGHkyiCKJEEwA_3dE5TupleIxibE: %excinfo"}
!33 = !{!"branch_weights", i32 99, i32 101}
